   1              		.syntax unified
   2              		.cpu cortex-m4
   3              		.eabi_attribute 27, 3
   4              		.fpu fpv4-sp-d16
   5              		.eabi_attribute 20, 1
   6              		.eabi_attribute 21, 1
   7              		.eabi_attribute 23, 3
   8              		.eabi_attribute 24, 1
   9              		.eabi_attribute 25, 1
  10              		.eabi_attribute 26, 1
  11              		.eabi_attribute 30, 6
  12              		.eabi_attribute 34, 1
  13              		.eabi_attribute 18, 4
  14              		.thumb
  15              		.file	"Main.c"
  16              		.text
  17              	.Ltext0:
  18              		.cfi_sections	.debug_frame
  19              		.comm	TX_DATA,4,4
  20              		.comm	BUF,10,4
  21              		.global	test
  22              		.bss
  25              	test:
  26 0000 00       		.space	1
  27              		.comm	T_X,2,2
  28              		.comm	T_Y,2,2
  29              		.comm	T_Z,2,2
  30              		.comm	T_T,2,2
  31              	I2C_Received:
  32 0001 00       		.space	1
  33              		.global	DataReceived
  34              		.align	1
  37              	DataReceived:
  38 0002 0000     		.space	2
  39              		.comm	Value,4,4
  40              		.align	2
  41              	SDA_IN:
  42 0004 00000000 		.space	4
  43              		.align	2
  44              	TEMP:
  45 0008 00000000 		.space	4
  46              		.align	2
  47              	I2C_Status:
  48 000c 00000000 		.space	4
  49              		.comm	TimerId,4,4
  50              		.comm	TimerId_1,4,4
  51              		.global	TimerId_2_cnt
  52              		.align	2
  55              	TimerId_2_cnt:
  56 0010 00000000 		.space	4
  57              		.global	soft_cnt
  58              		.align	2
  61              	soft_cnt:
  62 0014 00000000 		.space	4
  63              		.global	TimerExpired
  66              	TimerExpired:
  67 0018 00       		.space	1
  68 0019 000000   		.section	.text.DATA_printf,"ax",%progbits
  69              		.align	2
  70              		.global	DATA_printf
  71              		.thumb
  72              		.thumb_func
  74              	DATA_printf:
  75              	.LFB112:
  76              		.file 1 "../Main.c"
   1:../Main.c     **** /******************** (C) COPYRIGHT 2014 MiaoW Labs ***************************
   2:../Main.c     **** **	   		| PB8 - I2C1_SCL  |
   3:../Main.c     **** **			| PB9 - I2C1_SDA  |
   4:../Main.c     **** **			 -----------------
   5:../Main.c     **** **********************************************************************************/
   6:../Main.c     **** #include <DAVE3.h>
   7:../Main.c     **** //#include "I2C.h"
   8:../Main.c     **** #define Control_P5_0(Mode, DriveStrength)       PORT5->IOCR0 = (PORT5->IOCR0 & ~0x000000F8) | (Mode
   9:../Main.c     **** #define Control_P5_1(Mode, DriveStrength)       PORT5->IOCR0 = (PORT5->IOCR0 & ~0x0000F800) | (Mode
  10:../Main.c     **** #define Control_P5_2(Mode, DriveStrength)       PORT5->IOCR0 = (PORT5->IOCR0 & ~0x00F80000) | (Mode
  11:../Main.c     **** // Mode Input 0x00
  12:../Main.c     **** #define   uchar unsigned char
  13:../Main.c     **** 
  14:../Main.c     **** #define   uint unsigned int
  15:../Main.c     **** 
  16:../Main.c     **** 
  17:../Main.c     **** 
  18:../Main.c     **** // å®šä¹‰MPU6050å†…éƒ¨åœ°å€
  19:../Main.c     **** 
  20:../Main.c     **** //****************************************
  21:../Main.c     **** 
  22:../Main.c     **** #define	SMPLRT_DIV		0x19	//é™€èºä»ªé‡‡æ ·ç‡ï¼Œå…¸å‹å€¼ï¼š0x07(125Hz)
  23:../Main.c     **** 
  24:../Main.c     **** #define	CONFIG			0x1A	//ä½é€šæ»¤æ³¢é¢‘ç‡ï¼Œå…¸å‹å€¼ï¼š0x06(5Hz)
  25:../Main.c     **** 
  26:../Main.c     **** #define	GYRO_CONFIG		0x1B	//é™€èºä»ªè‡ªæ£€åŠæµ‹é‡èŒƒå›´ï¼Œå…¸å‹å€¼ï¼š0x18(ä¸è‡ªæ£€ï¼Œ2000deg/s
  27:../Main.c     **** 
  28:../Main.c     **** #define	ACCEL_CONFIG	0x1C	//åŠ é€Ÿè®¡è‡ªæ£€ã€æµ‹é‡èŒƒå›´åŠé«˜é€šæ»¤æ³¢é¢‘ç‡ï¼Œå…¸å‹å€¼ï¼š0x01(
  29:../Main.c     **** 
  30:../Main.c     **** #define	ACCEL_XOUT_H	0x3B
  31:../Main.c     **** 
  32:../Main.c     **** #define	ACCEL_XOUT_L	0x3C
  33:../Main.c     **** 
  34:../Main.c     **** #define	ACCEL_YOUT_H	0x3D
  35:../Main.c     **** 
  36:../Main.c     **** #define	ACCEL_YOUT_L	0x3E
  37:../Main.c     **** 
  38:../Main.c     **** #define	ACCEL_ZOUT_H	0x3F
  39:../Main.c     **** 
  40:../Main.c     **** #define	ACCEL_ZOUT_L	0x40
  41:../Main.c     **** 
  42:../Main.c     **** #define	TEMP_OUT_H		0x41
  43:../Main.c     **** 
  44:../Main.c     **** #define	TEMP_OUT_L		0x42
  45:../Main.c     **** 
  46:../Main.c     **** 
  47:../Main.c     **** 
  48:../Main.c     **** #define	GYRO_XOUT_H		0x43
  49:../Main.c     **** 
  50:../Main.c     **** #define	GYRO_XOUT_L		0x44
  51:../Main.c     **** 
  52:../Main.c     **** #define	GYRO_YOUT_H		0x45
  53:../Main.c     **** 
  54:../Main.c     **** #define	GYRO_YOUT_L		0x46
  55:../Main.c     **** 
  56:../Main.c     **** #define	GYRO_ZOUT_H		0x47
  57:../Main.c     **** 
  58:../Main.c     **** #define	GYRO_ZOUT_L		0x48
  59:../Main.c     **** 
  60:../Main.c     **** 
  61:../Main.c     **** 
  62:../Main.c     **** #define	PWR_MGMT_1		0x6B	//ç”µæºç®¡ç†ï¼Œå…¸å‹å€¼ï¼š0x00(æ­£å¸¸å¯ç”¨)
  63:../Main.c     **** 
  64:../Main.c     **** #define	WHO_AM_I		0x75	//IICåœ°å€å¯„å­˜å™¨(é»˜è®¤æ•°å€¼0x68ï¼Œåªè¯»)
  65:../Main.c     **** 
  66:../Main.c     **** 
  67:../Main.c     **** 
  68:../Main.c     **** 
  69:../Main.c     **** 
  70:../Main.c     **** //****************************
  71:../Main.c     **** 
  72:../Main.c     **** 
  73:../Main.c     **** 
  74:../Main.c     **** #define	MPU6050_Addr   0xD0	  //å®šä¹‰å™¨ä»¶åœ¨IICæ€»çº¿ä¸­çš„ä»åœ°å€,æ ¹æ®ALT  ADDRESSåœ°å€å¼•
  75:../Main.c     **** 
  76:../Main.c     **** 
  77:../Main.c     **** 
  78:../Main.c     **** unsigned char TX_DATA[4];  	 //æ˜¾ç¤ºæ®ç¼“å­˜åŒº
  79:../Main.c     **** 
  80:../Main.c     **** unsigned char BUF[10];       //æ¥æ”¶æ•°æ®ç¼“å­˜åŒº
  81:../Main.c     **** 
  82:../Main.c     **** char  test=0; 				 //IICç”¨åˆ°
  83:../Main.c     **** 
  84:../Main.c     **** short T_X,T_Y,T_Z,T_T;		 //X,Y,Zè½´ï¼Œæ¸©åº¦
  85:../Main.c     **** 
  86:../Main.c     **** 
  87:../Main.c     **** typedef enum INPUT_Type
  88:../Main.c     **** {
  89:../Main.c     ****   INPUT          = 0x00,
  90:../Main.c     ****   INPUT_PD       = 0x01, // Input Pull Down Device
  91:../Main.c     ****   INPUT_PU       = 0x02, // Input Pull Up Device
  92:../Main.c     ****   INPUT_PPS      = 0x03,
  93:../Main.c     ****   INPUT_INV      = 0x04,
  94:../Main.c     ****   INPUT_INV_PD   = 0x05,
  95:../Main.c     ****   INPUT_INV_PU   = 0x06,
  96:../Main.c     ****   INPUT_INV_PPS  = 0x07
  97:../Main.c     **** }INPUT_Type;
  98:../Main.c     **** typedef enum OUTPUT_Type
  99:../Main.c     **** {
 100:../Main.c     ****   OUTPUT_PP_GP   = 0x10, // Push Pull, GP: General Purpose
 101:../Main.c     ****   OUTPUT_PP_AF1  = 0x11, // Alternate Function 1
 102:../Main.c     ****   OUTPUT_PP_AF2  = 0x12,
 103:../Main.c     ****   OUTPUT_PP_AF3  = 0x13,
 104:../Main.c     ****   OUTPUT_PP_AF4  = 0x14,
 105:../Main.c     ****   OUTPUT_OD_GP   = 0x18, // Open Drain, GP: General Purpose
 106:../Main.c     ****   OUTPUT_OD_AF1  = 0x19,
 107:../Main.c     ****   OUTPUT_OD_AF2  = 0x1A,
 108:../Main.c     ****   OUTPUT_OD_AF3  = 0x1B,
 109:../Main.c     ****   OUTPUT_OD_AF4  = 0X1C
 110:../Main.c     **** }OUTPUT_Type;
 111:../Main.c     **** typedef enum PIN_Strength
 112:../Main.c     **** {
 113:../Main.c     ****   WEAK           = 0x7,
 114:../Main.c     ****   MEDIUM         = 0x4,
 115:../Main.c     ****   STRONG         = 0x2,
 116:../Main.c     ****   VERYSTRONG     = 0x0
 117:../Main.c     **** }PIN_Strength;
 118:../Main.c     **** 
 119:../Main.c     **** /*************************************/
 120:../Main.c     **** #define  I2C_Direction_Transmitter      ((uint8_t)0x00)
 121:../Main.c     **** #define  I2C_Direction_Receiver         ((uint8_t)0x01)
 122:../Main.c     **** 
 123:../Main.c     **** #define  XMC_Soft_IIC
 124:../Main.c     **** static volatile bool I2C_Received = FALSE;
 125:../Main.c     **** volatile uint16_t DataReceived = 0x0000;
 126:../Main.c     **** volatile uint32_t Value;
 127:../Main.c     **** static volatile uint32_t SDA_IN;
 128:../Main.c     **** static volatile uint32_t TEMP = 0;
 129:../Main.c     **** static uint32_t I2C_Status = (uint32_t)0;
 130:../Main.c     **** 
 131:../Main.c     **** handle_t TimerId;
 132:../Main.c     **** handle_t TimerId_1;
 133:../Main.c     **** volatile uint32_t TimerId_2_cnt = (uint32_t)0;
 134:../Main.c     **** volatile uint32_t soft_cnt      = (uint32_t)0;
 135:../Main.c     **** bool TimerExpired = FALSE;
 136:../Main.c     **** /*************************************/
 137:../Main.c     **** #ifdef XMC_Soft_IIC
 138:../Main.c     **** 
 139:../Main.c     **** /*
 140:../Main.c     ****  * IO004_Handle4 : SCL
 141:../Main.c     ****  * IO004_Handle5 : SDA
 142:../Main.c     ****  * IO004_SetOutputValue(IO004_Handle4,1);
 143:../Main.c     ****  * IO004_SetOutputValue(IO004_Handle5,1);
 144:../Main.c     ****  * // End of Soft I2C Pin Initialization
 145:../Main.c     ****  * IO004_ReadPin(IO004_Handle0);
 146:../Main.c     ****  * */
 147:../Main.c     **** 
 148:../Main.c     **** #define SCL_H         IO004_SetOutputValue(IO004_Handle0,1) /* GPIO_SetBits(GPIOB , GPIO_Pin_10)   
 149:../Main.c     **** #define SCL_L         IO004_SetOutputValue(IO004_Handle0,0) /* GPIO_ResetBits(GPIOB , GPIO_Pin_10) 
 150:../Main.c     **** 
 151:../Main.c     **** #define SDA_H         IO004_SetOutputValue(IO004_Handle1,1) /* GPIO_SetBits(GPIOB , GPIO_Pin_11)   
 152:../Main.c     **** #define SDA_L         IO004_SetOutputValue(IO004_Handle1,0) /* GPIO_ResetBits(GPIOB , GPIO_Pin_11) 
 153:../Main.c     **** 
 154:../Main.c     **** #define SCL_read      IO004_ReadPin(IO004_Handle0) /* GPIO_ReadInputDataBit(GPIOB , GPIO_Pin_10) */
 155:../Main.c     **** #define SDA_read      ReadSDA()//IO004_ReadPin(IO004_Handle1) /* GPIO_ReadInputDataBit(GPIOB , GPIO
 156:../Main.c     **** 
 157:../Main.c     **** 
 158:../Main.c     **** //IO004_EnableOutputDriver(&IO004_Handle0,IO004_OPENDRAIN);
 159:../Main.c     **** 
 160:../Main.c     **** void delay5ms(void);
 161:../Main.c     **** 
 162:../Main.c     **** void DATA_printf(uchar *s,short temp_data)
 163:../Main.c     **** {
  77              		.loc 1 163 0
  78              		.cfi_startproc
  79              		@ args = 0, pretend = 0, frame = 8
  80              		@ frame_needed = 1, uses_anonymous_args = 0
  81              		@ link register save eliminated.
  82 0000 80B4     		push	{r7}
  83              	.LCFI0:
  84              		.cfi_def_cfa_offset 4
  85              		.cfi_offset 7, -4
  86 0002 83B0     		sub	sp, sp, #12
  87              	.LCFI1:
  88              		.cfi_def_cfa_offset 16
  89 0004 00AF     		add	r7, sp, #0
  90              	.LCFI2:
  91              		.cfi_def_cfa_register 7
  92 0006 7860     		str	r0, [r7, #4]
  93 0008 0B46     		mov	r3, r1
  94 000a 7B80     		strh	r3, [r7, #2]	@ movhi
 164:../Main.c     ****     if(temp_data < 0)
  95              		.loc 1 164 0
  96 000c B7F90230 		ldrsh	r3, [r7, #2]
  97 0010 002B     		cmp	r3, #0
  98 0012 09DA     		bge	.L2
 165:../Main.c     ****     {
 166:../Main.c     ****         temp_data = -temp_data;
  99              		.loc 1 166 0
 100 0014 7B88     		ldrh	r3, [r7, #2]
 101 0016 C3F10003 		rsb	r3, r3, #0
 102 001a 9BB2     		uxth	r3, r3
 103 001c 7B80     		strh	r3, [r7, #2]	@ movhi
 167:../Main.c     ****         *s        = '-';
 104              		.loc 1 167 0
 105 001e 7B68     		ldr	r3, [r7, #4]
 106 0020 4FF02D02 		mov	r2, #45
 107 0024 1A70     		strb	r2, [r3, #0]
 108 0026 03E0     		b	.L3
 109              	.L2:
 168:../Main.c     ****     }
 169:../Main.c     ****     else
 170:../Main.c     ****     {
 171:../Main.c     ****         *s        = ' ';
 110              		.loc 1 171 0
 111 0028 7B68     		ldr	r3, [r7, #4]
 112 002a 4FF02002 		mov	r2, #32
 113 002e 1A70     		strb	r2, [r3, #0]
 114              	.L3:
 172:../Main.c     ****     }
 173:../Main.c     ****     *++s      = temp_data/100 + 0x30; //  å–ç™¾ä½ åŠ ä¸Š0çš„asciiç 
 115              		.loc 1 173 0
 116 0030 7B68     		ldr	r3, [r7, #4]
 117 0032 03F10103 		add	r3, r3, #1
 118 0036 7B60     		str	r3, [r7, #4]
 119 0038 B7F90220 		ldrsh	r2, [r7, #2]
 120 003c 48F21F53 		movw	r3, #34079
 121 0040 C5F2EB13 		movt	r3, 20971
 122 0044 83FB0213 		smull	r1, r3, r3, r2
 123 0048 4FEA6311 		asr	r1, r3, #5
 124 004c 4FEAE273 		asr	r3, r2, #31
 125 0050 CB1A     		subs	r3, r1, r3
 126 0052 9BB2     		uxth	r3, r3
 127 0054 DBB2     		uxtb	r3, r3
 128 0056 03F13003 		add	r3, r3, #48
 129 005a DAB2     		uxtb	r2, r3
 130 005c 7B68     		ldr	r3, [r7, #4]
 131 005e 1A70     		strb	r2, [r3, #0]
 174:../Main.c     ****     temp_data = temp_data     % 100;      //  å»é™¤ç™¾ä½
 132              		.loc 1 174 0
 133 0060 B7F90230 		ldrsh	r3, [r7, #2]
 134 0064 48F21F52 		movw	r2, #34079
 135 0068 C5F2EB12 		movt	r2, 20971
 136 006c 82FB0312 		smull	r1, r2, r2, r3
 137 0070 4FEA6211 		asr	r1, r2, #5
 138 0074 4FEAE372 		asr	r2, r3, #31
 139 0078 8A1A     		subs	r2, r1, r2
 140 007a 4FF06401 		mov	r1, #100
 141 007e 01FB02F2 		mul	r2, r1, r2
 142 0082 9B1A     		subs	r3, r3, r2
 143 0084 7B80     		strh	r3, [r7, #2]	@ movhi
 175:../Main.c     ****     *++s      = temp_data/10  + 0x30; //  å–åä½ åŠ ä¸Š0çš„asciiç 
 144              		.loc 1 175 0
 145 0086 7B68     		ldr	r3, [r7, #4]
 146 0088 03F10103 		add	r3, r3, #1
 147 008c 7B60     		str	r3, [r7, #4]
 148 008e B7F90220 		ldrsh	r2, [r7, #2]
 149 0092 46F26763 		movw	r3, #26215
 150 0096 C6F26663 		movt	r3, 26214
 151 009a 83FB0213 		smull	r1, r3, r3, r2
 152 009e 4FEAA301 		asr	r1, r3, #2
 153 00a2 4FEAE273 		asr	r3, r2, #31
 154 00a6 CB1A     		subs	r3, r1, r3
 155 00a8 9BB2     		uxth	r3, r3
 156 00aa DBB2     		uxtb	r3, r3
 157 00ac 03F13003 		add	r3, r3, #48
 158 00b0 DAB2     		uxtb	r2, r3
 159 00b2 7B68     		ldr	r3, [r7, #4]
 160 00b4 1A70     		strb	r2, [r3, #0]
 176:../Main.c     ****     temp_data = temp_data     % 10;       //  å»é™¤åä½
 161              		.loc 1 176 0
 162 00b6 B7F90220 		ldrsh	r2, [r7, #2]
 163 00ba 46F26763 		movw	r3, #26215
 164 00be C6F26663 		movt	r3, 26214
 165 00c2 83FB0213 		smull	r1, r3, r3, r2
 166 00c6 4FEAA301 		asr	r1, r3, #2
 167 00ca 4FEAE273 		asr	r3, r2, #31
 168 00ce C91A     		subs	r1, r1, r3
 169 00d0 0B46     		mov	r3, r1
 170 00d2 4FEA8303 		lsl	r3, r3, #2
 171 00d6 5B18     		adds	r3, r3, r1
 172 00d8 4FEA4303 		lsl	r3, r3, #1
 173 00dc D31A     		subs	r3, r2, r3
 174 00de 7B80     		strh	r3, [r7, #2]	@ movhi
 177:../Main.c     ****     *++s      = temp_data     + 0x30; //  å–ä¸ªä½ åŠ ä¸Š0çš„asciiç 
 175              		.loc 1 177 0
 176 00e0 7B68     		ldr	r3, [r7, #4]
 177 00e2 03F10103 		add	r3, r3, #1
 178 00e6 7B60     		str	r3, [r7, #4]
 179 00e8 7B88     		ldrh	r3, [r7, #2]	@ movhi
 180 00ea DBB2     		uxtb	r3, r3
 181 00ec 03F13003 		add	r3, r3, #48
 182 00f0 DAB2     		uxtb	r2, r3
 183 00f2 7B68     		ldr	r3, [r7, #4]
 184 00f4 1A70     		strb	r2, [r3, #0]
 178:../Main.c     **** }
 185              		.loc 1 178 0
 186 00f6 07F10C07 		add	r7, r7, #12
 187 00fa BD46     		mov	sp, r7
 188 00fc 80BC     		pop	{r7}
 189 00fe 7047     		bx	lr
 190              		.cfi_endproc
 191              	.LFE112:
 193              		.section	.text.USART1_SendData,"ax",%progbits
 194              		.align	2
 195              		.global	USART1_SendData
 196              		.thumb
 197              		.thumb_func
 199              	USART1_SendData:
 200              	.LFB113:
 179:../Main.c     **** //void USART1_SendData(char *s)
 180:../Main.c     **** void USART1_SendData(char *s) // è¿™é‡Œéœ€è¦ä¸ºchar* å¦åˆ™æ‰“å°å‡ºæ¥çš„æ•°æ®ä¹±ç 
 181:../Main.c     **** {
 201              		.loc 1 181 0
 202              		.cfi_startproc
 203              		@ args = 0, pretend = 0, frame = 16
 204              		@ frame_needed = 1, uses_anonymous_args = 0
 205 0000 80B5     		push	{r7, lr}
 206              	.LCFI3:
 207              		.cfi_def_cfa_offset 8
 208              		.cfi_offset 7, -8
 209              		.cfi_offset 14, -4
 210 0002 84B0     		sub	sp, sp, #16
 211              	.LCFI4:
 212              		.cfi_def_cfa_offset 24
 213 0004 00AF     		add	r7, sp, #0
 214              	.LCFI5:
 215              		.cfi_def_cfa_register 7
 216 0006 7860     		str	r0, [r7, #4]
 182:../Main.c     **** 	char *p;
 183:../Main.c     **** 	p=s;
 217              		.loc 1 183 0
 218 0008 7B68     		ldr	r3, [r7, #4]
 219 000a FB60     		str	r3, [r7, #12]
 184:../Main.c     **** 	while(!UART001_WriteDataBytes(&UART001_Handle0, p, 1));
 220              		.loc 1 184 0
 221 000c 00BF     		nop
 222              	.L5:
 223              		.loc 1 184 0 is_stmt 0 discriminator 1
 224 000e 40F20000 		movw	r0, #:lower16:UART001_Handle0
 225 0012 C0F20000 		movt	r0, #:upper16:UART001_Handle0
 226 0016 F968     		ldr	r1, [r7, #12]
 227 0018 4FF00102 		mov	r2, #1
 228 001c FFF7FEFF 		bl	UART001_WriteDataBytes
 229 0020 0346     		mov	r3, r0
 230 0022 002B     		cmp	r3, #0
 231 0024 F3D0     		beq	.L5
 185:../Main.c     **** /*	while(*p != '\0')
 186:../Main.c     **** 	{
 187:../Main.c     **** 		 USART1_Send_Byte(*p);
 188:../Main.c     **** 
 189:../Main.c     ****         UART001_WriteDataBytes(&UART001_Handle0, p, 1);
 190:../Main.c     **** 		p++;
 191:../Main.c     **** 	}*/
 192:../Main.c     **** }
 232              		.loc 1 192 0 is_stmt 1
 233 0026 07F11007 		add	r7, r7, #16
 234 002a BD46     		mov	sp, r7
 235 002c 80BD     		pop	{r7, pc}
 236              		.cfi_endproc
 237              	.LFE113:
 239 002e 00BF     		.section	.text.I2C_delay,"ax",%progbits
 240              		.align	2
 241              		.thumb
 242              		.thumb_func
 244              	I2C_delay:
 245              	.LFB114:
 193:../Main.c     **** 
 194:../Main.c     **** static void I2C_delay(void)
 195:../Main.c     **** {
 246              		.loc 1 195 0
 247              		.cfi_startproc
 248              		@ args = 0, pretend = 0, frame = 8
 249              		@ frame_needed = 1, uses_anonymous_args = 0
 250              		@ link register save eliminated.
 251 0000 80B4     		push	{r7}
 252              	.LCFI6:
 253              		.cfi_def_cfa_offset 4
 254              		.cfi_offset 7, -4
 255 0002 83B0     		sub	sp, sp, #12
 256              	.LCFI7:
 257              		.cfi_def_cfa_offset 16
 258 0004 00AF     		add	r7, sp, #0
 259              	.LCFI8:
 260              		.cfi_def_cfa_register 7
 196:../Main.c     ****     volatile int i = 14; // TODOï¼š æ”¹æˆ12è¯•è¯• åŸæ¥å€¼ä¸º7
 261              		.loc 1 196 0
 262 0006 4FF00E03 		mov	r3, #14
 263 000a 7B60     		str	r3, [r7, #4]
 197:../Main.c     ****     while (i)
 264              		.loc 1 197 0
 265 000c 03E0     		b	.L7
 266              	.L8:
 198:../Main.c     ****         i--;
 267              		.loc 1 198 0
 268 000e 7B68     		ldr	r3, [r7, #4]
 269 0010 03F1FF33 		add	r3, r3, #-1
 270 0014 7B60     		str	r3, [r7, #4]
 271              	.L7:
 197:../Main.c     ****     while (i)
 272              		.loc 1 197 0 discriminator 1
 273 0016 7B68     		ldr	r3, [r7, #4]
 274 0018 002B     		cmp	r3, #0
 275 001a F8D1     		bne	.L8
 199:../Main.c     **** }
 276              		.loc 1 199 0
 277 001c 07F10C07 		add	r7, r7, #12
 278 0020 BD46     		mov	sp, r7
 279 0022 80BC     		pop	{r7}
 280 0024 7047     		bx	lr
 281              		.cfi_endproc
 282              	.LFE114:
 284 0026 00BF     		.section	.text.ReadSDA,"ax",%progbits
 285              		.align	2
 286              		.thumb
 287              		.thumb_func
 289              	ReadSDA:
 290              	.LFB115:
 200:../Main.c     **** static uint32_t ReadSDA(void)
 201:../Main.c     **** {
 291              		.loc 1 201 0
 292              		.cfi_startproc
 293              		@ args = 0, pretend = 0, frame = 0
 294              		@ frame_needed = 1, uses_anonymous_args = 0
 295              		@ link register save eliminated.
 296 0000 80B4     		push	{r7}
 297              	.LCFI9:
 298              		.cfi_def_cfa_offset 4
 299              		.cfi_offset 7, -4
 300 0002 00AF     		add	r7, sp, #0
 301              	.LCFI10:
 302              		.cfi_def_cfa_register 7
 202:../Main.c     **** //  IOå£çš„Strengthæ˜¯åœ¨IO004_Init()é‡Œé¢è®¾ç½®çš„
 203:../Main.c     **** //	IO004_EnableOutputDriver(&IO004_Handle1,INPUT);
 204:../Main.c     **** /*	asm("NOP");
 205:../Main.c     **** 	asm("NOP");
 206:../Main.c     **** 	asm("NOP");
 207:../Main.c     **** 	asm("NOP");*/
 208:../Main.c     **** 	SDA_IN = IO004_ReadPin(IO004_Handle1);
 303              		.loc 1 208 0
 304 0004 40F20003 		movw	r3, #:lower16:IO004_Handle1
 305 0008 C0F20003 		movt	r3, #:upper16:IO004_Handle1
 306 000c 5B68     		ldr	r3, [r3, #4]
 307 000e 5A6A     		ldr	r2, [r3, #36]
 308 0010 40F20003 		movw	r3, #:lower16:IO004_Handle1
 309 0014 C0F20003 		movt	r3, #:upper16:IO004_Handle1
 310 0018 5B78     		ldrb	r3, [r3, #1]	@ zero_extendqisi2
 311 001a 22FA03F3 		lsr	r3, r2, r3
 312 001e 03F00102 		and	r2, r3, #1
 313 0022 40F20003 		movw	r3, #:lower16:SDA_IN
 314 0026 C0F20003 		movt	r3, #:upper16:SDA_IN
 315 002a 1A60     		str	r2, [r3, #0]
 209:../Main.c     **** 	//IO004_EnableOutputDriver(&IO004_Handle0,IO004_PUSHPULL);
 210:../Main.c     **** 	return SDA_IN;
 316              		.loc 1 210 0
 317 002c 40F20003 		movw	r3, #:lower16:SDA_IN
 318 0030 C0F20003 		movt	r3, #:upper16:SDA_IN
 319 0034 1B68     		ldr	r3, [r3, #0]
 211:../Main.c     **** }
 320              		.loc 1 211 0
 321 0036 1846     		mov	r0, r3
 322 0038 BD46     		mov	sp, r7
 323 003a 80BC     		pop	{r7}
 324 003c 7047     		bx	lr
 325              		.cfi_endproc
 326              	.LFE115:
 328 003e 00BF     		.section	.text.I2C_Start,"ax",%progbits
 329              		.align	2
 330              		.thumb
 331              		.thumb_func
 333              	I2C_Start:
 334              	.LFB116:
 212:../Main.c     **** static bool I2C_Start(void)
 213:../Main.c     **** {
 335              		.loc 1 213 0
 336              		.cfi_startproc
 337              		@ args = 0, pretend = 0, frame = 0
 338              		@ frame_needed = 1, uses_anonymous_args = 0
 339 0000 80B5     		push	{r7, lr}
 340              	.LCFI11:
 341              		.cfi_def_cfa_offset 8
 342              		.cfi_offset 7, -8
 343              		.cfi_offset 14, -4
 344 0002 00AF     		add	r7, sp, #0
 345              	.LCFI12:
 346              		.cfi_def_cfa_register 7
 214:../Main.c     ****     SDA_H;
 347              		.loc 1 214 0
 348 0004 40F20003 		movw	r3, #:lower16:IO004_Handle1
 349 0008 C0F20003 		movt	r3, #:upper16:IO004_Handle1
 350 000c 5A68     		ldr	r2, [r3, #4]
 351 000e 40F20003 		movw	r3, #:lower16:IO004_Handle1
 352 0012 C0F20003 		movt	r3, #:upper16:IO004_Handle1
 353 0016 5B78     		ldrb	r3, [r3, #1]	@ zero_extendqisi2
 354 0018 4FF00101 		mov	r1, #1
 355 001c 01FA03F3 		lsl	r3, r1, r3
 356 0020 5360     		str	r3, [r2, #4]
 215:../Main.c     ****     SCL_H;
 357              		.loc 1 215 0
 358 0022 40F20003 		movw	r3, #:lower16:IO004_Handle0
 359 0026 C0F20003 		movt	r3, #:upper16:IO004_Handle0
 360 002a 5A68     		ldr	r2, [r3, #4]
 361 002c 40F20003 		movw	r3, #:lower16:IO004_Handle0
 362 0030 C0F20003 		movt	r3, #:upper16:IO004_Handle0
 363 0034 5B78     		ldrb	r3, [r3, #1]	@ zero_extendqisi2
 364 0036 4FF00101 		mov	r1, #1
 365 003a 01FA03F3 		lsl	r3, r1, r3
 366 003e 5360     		str	r3, [r2, #4]
 216:../Main.c     ****     I2C_delay();
 367              		.loc 1 216 0
 368 0040 FFF7FEFF 		bl	I2C_delay
 217:../Main.c     ****     I2C_delay();
 369              		.loc 1 217 0
 370 0044 FFF7FEFF 		bl	I2C_delay
 218:../Main.c     ****     if (!SDA_read)
 371              		.loc 1 218 0
 372 0048 FFF7FEFF 		bl	ReadSDA
 373 004c 0346     		mov	r3, r0
 374 004e 002B     		cmp	r3, #0
 375 0050 02D1     		bne	.L12
 219:../Main.c     ****         return FALSE; // åˆ¤æ–­SDAæ˜¯å¦è¢«æˆåŠŸæ‹‰é«˜
 376              		.loc 1 219 0
 377 0052 4FF00003 		mov	r3, #0
 378 0056 2DE0     		b	.L13
 379              	.L12:
 220:../Main.c     ****   //  IO004_EnableOutputDriver(&IO004_Handle1,OUTPUT_OD_GP);
 221:../Main.c     ****     SDA_L;            // æ‹‰ä½SDAï¼Œç”¨äºäº§ç”ŸSTARTä¿¡å·
 380              		.loc 1 221 0
 381 0058 40F20003 		movw	r3, #:lower16:IO004_Handle1
 382 005c C0F20003 		movt	r3, #:upper16:IO004_Handle1
 383 0060 5A68     		ldr	r2, [r3, #4]
 384 0062 40F20003 		movw	r3, #:lower16:IO004_Handle1
 385 0066 C0F20003 		movt	r3, #:upper16:IO004_Handle1
 386 006a 5B78     		ldrb	r3, [r3, #1]	@ zero_extendqisi2
 387 006c 4FF48031 		mov	r1, #65536
 388 0070 01FA03F3 		lsl	r3, r1, r3
 389 0074 5360     		str	r3, [r2, #4]
 222:../Main.c     ****     I2C_delay();      // è®©SDAä¿æŒä½
 390              		.loc 1 222 0
 391 0076 FFF7FEFF 		bl	I2C_delay
 223:../Main.c     **** 
 224:../Main.c     ****     if (SDA_read)     // è¯»å–SDAç¡®ä¿SDAè¢«æˆåŠŸæ‹‰ä½
 392              		.loc 1 224 0
 393 007a FFF7FEFF 		bl	ReadSDA
 394 007e 0346     		mov	r3, r0
 395 0080 002B     		cmp	r3, #0
 396 0082 02D0     		beq	.L14
 225:../Main.c     ****          return FALSE;
 397              		.loc 1 225 0
 398 0084 4FF00003 		mov	r3, #0
 399 0088 14E0     		b	.L13
 400              	.L14:
 226:../Main.c     ****    // IO004_EnableOutputDriver(&IO004_Handle1,OUTPUT_OD_GP);
 227:../Main.c     ****     SDA_L;            // è¯»å–SDAåæŠŠSDAä»è¾“å…¥å˜ä¸ºè¾“å‡º,éœ€è¦é‡æ–°é…ç½®SDAçš„çŠ¶æ€ï¼šä
 401              		.loc 1 227 0
 402 008a 40F20003 		movw	r3, #:lower16:IO004_Handle1
 403 008e C0F20003 		movt	r3, #:upper16:IO004_Handle1
 404 0092 5A68     		ldr	r2, [r3, #4]
 405 0094 40F20003 		movw	r3, #:lower16:IO004_Handle1
 406 0098 C0F20003 		movt	r3, #:upper16:IO004_Handle1
 407 009c 5B78     		ldrb	r3, [r3, #1]	@ zero_extendqisi2
 408 009e 4FF48031 		mov	r1, #65536
 409 00a2 01FA03F3 		lsl	r3, r1, r3
 410 00a6 5360     		str	r3, [r2, #4]
 228:../Main.c     ****     I2C_delay();      // å»¶æ—¶ä¸€æ®µæ—¶é—´
 411              		.loc 1 228 0
 412 00a8 FFF7FEFF 		bl	I2C_delay
 229:../Main.c     ****     I2C_delay();
 413              		.loc 1 229 0
 414 00ac FFF7FEFF 		bl	I2C_delay
 230:../Main.c     ****     return TRUE;
 415              		.loc 1 230 0
 416 00b0 4FF00103 		mov	r3, #1
 417              	.L13:
 231:../Main.c     **** }
 418              		.loc 1 231 0
 419 00b4 1846     		mov	r0, r3
 420 00b6 80BD     		pop	{r7, pc}
 421              		.cfi_endproc
 422              	.LFE116:
 424              		.section	.text.I2C_Stop,"ax",%progbits
 425              		.align	2
 426              		.thumb
 427              		.thumb_func
 429              	I2C_Stop:
 430              	.LFB117:
 232:../Main.c     **** 
 233:../Main.c     **** static void I2C_Stop(void)
 234:../Main.c     **** {
 431              		.loc 1 234 0
 432              		.cfi_startproc
 433              		@ args = 0, pretend = 0, frame = 0
 434              		@ frame_needed = 1, uses_anonymous_args = 0
 435 0000 80B5     		push	{r7, lr}
 436              	.LCFI13:
 437              		.cfi_def_cfa_offset 8
 438              		.cfi_offset 7, -8
 439              		.cfi_offset 14, -4
 440 0002 00AF     		add	r7, sp, #0
 441              	.LCFI14:
 442              		.cfi_def_cfa_register 7
 235:../Main.c     ****     SCL_L;
 443              		.loc 1 235 0
 444 0004 40F20003 		movw	r3, #:lower16:IO004_Handle0
 445 0008 C0F20003 		movt	r3, #:upper16:IO004_Handle0
 446 000c 5A68     		ldr	r2, [r3, #4]
 447 000e 40F20003 		movw	r3, #:lower16:IO004_Handle0
 448 0012 C0F20003 		movt	r3, #:upper16:IO004_Handle0
 449 0016 5B78     		ldrb	r3, [r3, #1]	@ zero_extendqisi2
 450 0018 4FF48031 		mov	r1, #65536
 451 001c 01FA03F3 		lsl	r3, r1, r3
 452 0020 5360     		str	r3, [r2, #4]
 236:../Main.c     ****     I2C_delay();
 453              		.loc 1 236 0
 454 0022 FFF7FEFF 		bl	I2C_delay
 237:../Main.c     ****     SDA_L;
 455              		.loc 1 237 0
 456 0026 40F20003 		movw	r3, #:lower16:IO004_Handle1
 457 002a C0F20003 		movt	r3, #:upper16:IO004_Handle1
 458 002e 5A68     		ldr	r2, [r3, #4]
 459 0030 40F20003 		movw	r3, #:lower16:IO004_Handle1
 460 0034 C0F20003 		movt	r3, #:upper16:IO004_Handle1
 461 0038 5B78     		ldrb	r3, [r3, #1]	@ zero_extendqisi2
 462 003a 4FF48031 		mov	r1, #65536
 463 003e 01FA03F3 		lsl	r3, r1, r3
 464 0042 5360     		str	r3, [r2, #4]
 238:../Main.c     ****     I2C_delay();
 465              		.loc 1 238 0
 466 0044 FFF7FEFF 		bl	I2C_delay
 239:../Main.c     ****     SCL_H;
 467              		.loc 1 239 0
 468 0048 40F20003 		movw	r3, #:lower16:IO004_Handle0
 469 004c C0F20003 		movt	r3, #:upper16:IO004_Handle0
 470 0050 5A68     		ldr	r2, [r3, #4]
 471 0052 40F20003 		movw	r3, #:lower16:IO004_Handle0
 472 0056 C0F20003 		movt	r3, #:upper16:IO004_Handle0
 473 005a 5B78     		ldrb	r3, [r3, #1]	@ zero_extendqisi2
 474 005c 4FF00101 		mov	r1, #1
 475 0060 01FA03F3 		lsl	r3, r1, r3
 476 0064 5360     		str	r3, [r2, #4]
 240:../Main.c     ****     I2C_delay();
 477              		.loc 1 240 0
 478 0066 FFF7FEFF 		bl	I2C_delay
 241:../Main.c     ****     SDA_H;
 479              		.loc 1 241 0
 480 006a 40F20003 		movw	r3, #:lower16:IO004_Handle1
 481 006e C0F20003 		movt	r3, #:upper16:IO004_Handle1
 482 0072 5A68     		ldr	r2, [r3, #4]
 483 0074 40F20003 		movw	r3, #:lower16:IO004_Handle1
 484 0078 C0F20003 		movt	r3, #:upper16:IO004_Handle1
 485 007c 5B78     		ldrb	r3, [r3, #1]	@ zero_extendqisi2
 486 007e 4FF00101 		mov	r1, #1
 487 0082 01FA03F3 		lsl	r3, r1, r3
 488 0086 5360     		str	r3, [r2, #4]
 242:../Main.c     ****     I2C_delay();
 489              		.loc 1 242 0
 490 0088 FFF7FEFF 		bl	I2C_delay
 243:../Main.c     **** }
 491              		.loc 1 243 0
 492 008c 80BD     		pop	{r7, pc}
 493              		.cfi_endproc
 494              	.LFE117:
 496 008e 00BF     		.section	.text.I2C_Ack,"ax",%progbits
 497              		.align	2
 498              		.thumb
 499              		.thumb_func
 501              	I2C_Ack:
 502              	.LFB118:
 244:../Main.c     **** 
 245:../Main.c     **** static void I2C_Ack(void)
 246:../Main.c     **** {
 503              		.loc 1 246 0
 504              		.cfi_startproc
 505              		@ args = 0, pretend = 0, frame = 0
 506              		@ frame_needed = 1, uses_anonymous_args = 0
 507 0000 80B5     		push	{r7, lr}
 508              	.LCFI15:
 509              		.cfi_def_cfa_offset 8
 510              		.cfi_offset 7, -8
 511              		.cfi_offset 14, -4
 512 0002 00AF     		add	r7, sp, #0
 513              	.LCFI16:
 514              		.cfi_def_cfa_register 7
 247:../Main.c     ****     SCL_L;
 515              		.loc 1 247 0
 516 0004 40F20003 		movw	r3, #:lower16:IO004_Handle0
 517 0008 C0F20003 		movt	r3, #:upper16:IO004_Handle0
 518 000c 5A68     		ldr	r2, [r3, #4]
 519 000e 40F20003 		movw	r3, #:lower16:IO004_Handle0
 520 0012 C0F20003 		movt	r3, #:upper16:IO004_Handle0
 521 0016 5B78     		ldrb	r3, [r3, #1]	@ zero_extendqisi2
 522 0018 4FF48031 		mov	r1, #65536
 523 001c 01FA03F3 		lsl	r3, r1, r3
 524 0020 5360     		str	r3, [r2, #4]
 248:../Main.c     ****     I2C_delay();
 525              		.loc 1 248 0
 526 0022 FFF7FEFF 		bl	I2C_delay
 249:../Main.c     ****     SDA_L;
 527              		.loc 1 249 0
 528 0026 40F20003 		movw	r3, #:lower16:IO004_Handle1
 529 002a C0F20003 		movt	r3, #:upper16:IO004_Handle1
 530 002e 5A68     		ldr	r2, [r3, #4]
 531 0030 40F20003 		movw	r3, #:lower16:IO004_Handle1
 532 0034 C0F20003 		movt	r3, #:upper16:IO004_Handle1
 533 0038 5B78     		ldrb	r3, [r3, #1]	@ zero_extendqisi2
 534 003a 4FF48031 		mov	r1, #65536
 535 003e 01FA03F3 		lsl	r3, r1, r3
 536 0042 5360     		str	r3, [r2, #4]
 250:../Main.c     ****     I2C_delay();
 537              		.loc 1 250 0
 538 0044 FFF7FEFF 		bl	I2C_delay
 251:../Main.c     ****     SCL_H;
 539              		.loc 1 251 0
 540 0048 40F20003 		movw	r3, #:lower16:IO004_Handle0
 541 004c C0F20003 		movt	r3, #:upper16:IO004_Handle0
 542 0050 5A68     		ldr	r2, [r3, #4]
 543 0052 40F20003 		movw	r3, #:lower16:IO004_Handle0
 544 0056 C0F20003 		movt	r3, #:upper16:IO004_Handle0
 545 005a 5B78     		ldrb	r3, [r3, #1]	@ zero_extendqisi2
 546 005c 4FF00101 		mov	r1, #1
 547 0060 01FA03F3 		lsl	r3, r1, r3
 548 0064 5360     		str	r3, [r2, #4]
 252:../Main.c     ****     I2C_delay();
 549              		.loc 1 252 0
 550 0066 FFF7FEFF 		bl	I2C_delay
 253:../Main.c     ****     SCL_L;
 551              		.loc 1 253 0
 552 006a 40F20003 		movw	r3, #:lower16:IO004_Handle0
 553 006e C0F20003 		movt	r3, #:upper16:IO004_Handle0
 554 0072 5A68     		ldr	r2, [r3, #4]
 555 0074 40F20003 		movw	r3, #:lower16:IO004_Handle0
 556 0078 C0F20003 		movt	r3, #:upper16:IO004_Handle0
 557 007c 5B78     		ldrb	r3, [r3, #1]	@ zero_extendqisi2
 558 007e 4FF48031 		mov	r1, #65536
 559 0082 01FA03F3 		lsl	r3, r1, r3
 560 0086 5360     		str	r3, [r2, #4]
 254:../Main.c     ****     I2C_delay();
 561              		.loc 1 254 0
 562 0088 FFF7FEFF 		bl	I2C_delay
 255:../Main.c     **** }
 563              		.loc 1 255 0
 564 008c 80BD     		pop	{r7, pc}
 565              		.cfi_endproc
 566              	.LFE118:
 568 008e 00BF     		.section	.text.I2C_NoAck,"ax",%progbits
 569              		.align	2
 570              		.thumb
 571              		.thumb_func
 573              	I2C_NoAck:
 574              	.LFB119:
 256:../Main.c     **** 
 257:../Main.c     **** static void I2C_NoAck(void)
 258:../Main.c     **** {
 575              		.loc 1 258 0
 576              		.cfi_startproc
 577              		@ args = 0, pretend = 0, frame = 0
 578              		@ frame_needed = 1, uses_anonymous_args = 0
 579 0000 80B5     		push	{r7, lr}
 580              	.LCFI17:
 581              		.cfi_def_cfa_offset 8
 582              		.cfi_offset 7, -8
 583              		.cfi_offset 14, -4
 584 0002 00AF     		add	r7, sp, #0
 585              	.LCFI18:
 586              		.cfi_def_cfa_register 7
 259:../Main.c     ****     SCL_L;
 587              		.loc 1 259 0
 588 0004 40F20003 		movw	r3, #:lower16:IO004_Handle0
 589 0008 C0F20003 		movt	r3, #:upper16:IO004_Handle0
 590 000c 5A68     		ldr	r2, [r3, #4]
 591 000e 40F20003 		movw	r3, #:lower16:IO004_Handle0
 592 0012 C0F20003 		movt	r3, #:upper16:IO004_Handle0
 593 0016 5B78     		ldrb	r3, [r3, #1]	@ zero_extendqisi2
 594 0018 4FF48031 		mov	r1, #65536
 595 001c 01FA03F3 		lsl	r3, r1, r3
 596 0020 5360     		str	r3, [r2, #4]
 260:../Main.c     ****     I2C_delay();
 597              		.loc 1 260 0
 598 0022 FFF7FEFF 		bl	I2C_delay
 261:../Main.c     ****     SDA_H;
 599              		.loc 1 261 0
 600 0026 40F20003 		movw	r3, #:lower16:IO004_Handle1
 601 002a C0F20003 		movt	r3, #:upper16:IO004_Handle1
 602 002e 5A68     		ldr	r2, [r3, #4]
 603 0030 40F20003 		movw	r3, #:lower16:IO004_Handle1
 604 0034 C0F20003 		movt	r3, #:upper16:IO004_Handle1
 605 0038 5B78     		ldrb	r3, [r3, #1]	@ zero_extendqisi2
 606 003a 4FF00101 		mov	r1, #1
 607 003e 01FA03F3 		lsl	r3, r1, r3
 608 0042 5360     		str	r3, [r2, #4]
 262:../Main.c     ****     I2C_delay();
 609              		.loc 1 262 0
 610 0044 FFF7FEFF 		bl	I2C_delay
 263:../Main.c     ****     SCL_H;
 611              		.loc 1 263 0
 612 0048 40F20003 		movw	r3, #:lower16:IO004_Handle0
 613 004c C0F20003 		movt	r3, #:upper16:IO004_Handle0
 614 0050 5A68     		ldr	r2, [r3, #4]
 615 0052 40F20003 		movw	r3, #:lower16:IO004_Handle0
 616 0056 C0F20003 		movt	r3, #:upper16:IO004_Handle0
 617 005a 5B78     		ldrb	r3, [r3, #1]	@ zero_extendqisi2
 618 005c 4FF00101 		mov	r1, #1
 619 0060 01FA03F3 		lsl	r3, r1, r3
 620 0064 5360     		str	r3, [r2, #4]
 264:../Main.c     ****     I2C_delay();
 621              		.loc 1 264 0
 622 0066 FFF7FEFF 		bl	I2C_delay
 265:../Main.c     ****     SCL_L;
 623              		.loc 1 265 0
 624 006a 40F20003 		movw	r3, #:lower16:IO004_Handle0
 625 006e C0F20003 		movt	r3, #:upper16:IO004_Handle0
 626 0072 5A68     		ldr	r2, [r3, #4]
 627 0074 40F20003 		movw	r3, #:lower16:IO004_Handle0
 628 0078 C0F20003 		movt	r3, #:upper16:IO004_Handle0
 629 007c 5B78     		ldrb	r3, [r3, #1]	@ zero_extendqisi2
 630 007e 4FF48031 		mov	r1, #65536
 631 0082 01FA03F3 		lsl	r3, r1, r3
 632 0086 5360     		str	r3, [r2, #4]
 266:../Main.c     ****     I2C_delay();
 633              		.loc 1 266 0
 634 0088 FFF7FEFF 		bl	I2C_delay
 267:../Main.c     **** }
 635              		.loc 1 267 0
 636 008c 80BD     		pop	{r7, pc}
 637              		.cfi_endproc
 638              	.LFE119:
 640 008e 00BF     		.section	.text.I2C_WaitAck,"ax",%progbits
 641              		.align	2
 642              		.thumb
 643              		.thumb_func
 645              	I2C_WaitAck:
 646              	.LFB120:
 268:../Main.c     **** 
 269:../Main.c     **** static bool I2C_WaitAck(void)
 270:../Main.c     **** {
 647              		.loc 1 270 0
 648              		.cfi_startproc
 649              		@ args = 0, pretend = 0, frame = 0
 650              		@ frame_needed = 1, uses_anonymous_args = 0
 651 0000 80B5     		push	{r7, lr}
 652              	.LCFI19:
 653              		.cfi_def_cfa_offset 8
 654              		.cfi_offset 7, -8
 655              		.cfi_offset 14, -4
 656 0002 00AF     		add	r7, sp, #0
 657              	.LCFI20:
 658              		.cfi_def_cfa_register 7
 271:../Main.c     ****     SCL_L;
 659              		.loc 1 271 0
 660 0004 40F20003 		movw	r3, #:lower16:IO004_Handle0
 661 0008 C0F20003 		movt	r3, #:upper16:IO004_Handle0
 662 000c 5A68     		ldr	r2, [r3, #4]
 663 000e 40F20003 		movw	r3, #:lower16:IO004_Handle0
 664 0012 C0F20003 		movt	r3, #:upper16:IO004_Handle0
 665 0016 5B78     		ldrb	r3, [r3, #1]	@ zero_extendqisi2
 666 0018 4FF48031 		mov	r1, #65536
 667 001c 01FA03F3 		lsl	r3, r1, r3
 668 0020 5360     		str	r3, [r2, #4]
 272:../Main.c     ****     I2C_delay();
 669              		.loc 1 272 0
 670 0022 FFF7FEFF 		bl	I2C_delay
 273:../Main.c     ****     SDA_H;
 671              		.loc 1 273 0
 672 0026 40F20003 		movw	r3, #:lower16:IO004_Handle1
 673 002a C0F20003 		movt	r3, #:upper16:IO004_Handle1
 674 002e 5A68     		ldr	r2, [r3, #4]
 675 0030 40F20003 		movw	r3, #:lower16:IO004_Handle1
 676 0034 C0F20003 		movt	r3, #:upper16:IO004_Handle1
 677 0038 5B78     		ldrb	r3, [r3, #1]	@ zero_extendqisi2
 678 003a 4FF00101 		mov	r1, #1
 679 003e 01FA03F3 		lsl	r3, r1, r3
 680 0042 5360     		str	r3, [r2, #4]
 274:../Main.c     ****     I2C_delay();
 681              		.loc 1 274 0
 682 0044 FFF7FEFF 		bl	I2C_delay
 275:../Main.c     ****     SCL_H;
 683              		.loc 1 275 0
 684 0048 40F20003 		movw	r3, #:lower16:IO004_Handle0
 685 004c C0F20003 		movt	r3, #:upper16:IO004_Handle0
 686 0050 5A68     		ldr	r2, [r3, #4]
 687 0052 40F20003 		movw	r3, #:lower16:IO004_Handle0
 688 0056 C0F20003 		movt	r3, #:upper16:IO004_Handle0
 689 005a 5B78     		ldrb	r3, [r3, #1]	@ zero_extendqisi2
 690 005c 4FF00101 		mov	r1, #1
 691 0060 01FA03F3 		lsl	r3, r1, r3
 692 0064 5360     		str	r3, [r2, #4]
 276:../Main.c     ****     I2C_delay();
 693              		.loc 1 276 0
 694 0066 FFF7FEFF 		bl	I2C_delay
 277:../Main.c     ****     I2C_delay();
 695              		.loc 1 277 0
 696 006a FFF7FEFF 		bl	I2C_delay
 278:../Main.c     ****     I2C_delay();
 697              		.loc 1 278 0
 698 006e FFF7FEFF 		bl	I2C_delay
 279:../Main.c     ****     I2C_delay();
 699              		.loc 1 279 0
 700 0072 FFF7FEFF 		bl	I2C_delay
 280:../Main.c     ****     if (SDA_read) {
 701              		.loc 1 280 0
 702 0076 FFF7FEFF 		bl	ReadSDA
 703 007a 0346     		mov	r3, r0
 704 007c 002B     		cmp	r3, #0
 705 007e 1DD0     		beq	.L19
 281:../Main.c     ****         SCL_L;
 706              		.loc 1 281 0
 707 0080 40F20003 		movw	r3, #:lower16:IO004_Handle0
 708 0084 C0F20003 		movt	r3, #:upper16:IO004_Handle0
 709 0088 5A68     		ldr	r2, [r3, #4]
 710 008a 40F20003 		movw	r3, #:lower16:IO004_Handle0
 711 008e C0F20003 		movt	r3, #:upper16:IO004_Handle0
 712 0092 5B78     		ldrb	r3, [r3, #1]	@ zero_extendqisi2
 713 0094 4FF48031 		mov	r1, #65536
 714 0098 01FA03F3 		lsl	r3, r1, r3
 715 009c 5360     		str	r3, [r2, #4]
 282:../Main.c     ****         I2C_delay();
 716              		.loc 1 282 0
 717 009e FFF7FEFF 		bl	I2C_delay
 283:../Main.c     ****         TEMP  = SDA_IN;
 718              		.loc 1 283 0
 719 00a2 40F20003 		movw	r3, #:lower16:SDA_IN
 720 00a6 C0F20003 		movt	r3, #:upper16:SDA_IN
 721 00aa 1A68     		ldr	r2, [r3, #0]
 722 00ac 40F20003 		movw	r3, #:lower16:TEMP
 723 00b0 C0F20003 		movt	r3, #:upper16:TEMP
 724 00b4 1A60     		str	r2, [r3, #0]
 284:../Main.c     ****        return FALSE;
 725              		.loc 1 284 0
 726 00b6 4FF00003 		mov	r3, #0
 727 00ba 12E0     		b	.L20
 728              	.L19:
 285:../Main.c     ****     }
 286:../Main.c     ****    // IO004_EnableOutputDriver(&IO004_Handle1,OUTPUT_OD_GP);
 287:../Main.c     ****     SCL_L;
 729              		.loc 1 287 0
 730 00bc 40F20003 		movw	r3, #:lower16:IO004_Handle0
 731 00c0 C0F20003 		movt	r3, #:upper16:IO004_Handle0
 732 00c4 5A68     		ldr	r2, [r3, #4]
 733 00c6 40F20003 		movw	r3, #:lower16:IO004_Handle0
 734 00ca C0F20003 		movt	r3, #:upper16:IO004_Handle0
 735 00ce 5B78     		ldrb	r3, [r3, #1]	@ zero_extendqisi2
 736 00d0 4FF48031 		mov	r1, #65536
 737 00d4 01FA03F3 		lsl	r3, r1, r3
 738 00d8 5360     		str	r3, [r2, #4]
 288:../Main.c     ****     //
 289:../Main.c     ****     I2C_delay();
 739              		.loc 1 289 0
 740 00da FFF7FEFF 		bl	I2C_delay
 290:../Main.c     ****     return TRUE;
 741              		.loc 1 290 0
 742 00de 4FF00103 		mov	r3, #1
 743              	.L20:
 291:../Main.c     **** }
 744              		.loc 1 291 0
 745 00e2 1846     		mov	r0, r3
 746 00e4 80BD     		pop	{r7, pc}
 747              		.cfi_endproc
 748              	.LFE120:
 750 00e6 00BF     		.section	.text.I2C_SendByte,"ax",%progbits
 751              		.align	2
 752              		.thumb
 753              		.thumb_func
 755              	I2C_SendByte:
 756              	.LFB121:
 292:../Main.c     **** 
 293:../Main.c     **** static void I2C_SendByte(uint8_t byte)
 294:../Main.c     **** {
 757              		.loc 1 294 0
 758              		.cfi_startproc
 759              		@ args = 0, pretend = 0, frame = 16
 760              		@ frame_needed = 1, uses_anonymous_args = 0
 761 0000 80B5     		push	{r7, lr}
 762              	.LCFI21:
 763              		.cfi_def_cfa_offset 8
 764              		.cfi_offset 7, -8
 765              		.cfi_offset 14, -4
 766 0002 84B0     		sub	sp, sp, #16
 767              	.LCFI22:
 768              		.cfi_def_cfa_offset 24
 769 0004 00AF     		add	r7, sp, #0
 770              	.LCFI23:
 771              		.cfi_def_cfa_register 7
 772 0006 0346     		mov	r3, r0
 773 0008 FB71     		strb	r3, [r7, #7]
 295:../Main.c     ****     uint8_t i = 8;
 774              		.loc 1 295 0
 775 000a 4FF00803 		mov	r3, #8
 776 000e FB73     		strb	r3, [r7, #15]
 296:../Main.c     ****     while (i--) {
 777              		.loc 1 296 0
 778 0010 4AE0     		b	.L22
 779              	.L25:
 297:../Main.c     ****         SCL_L;           // æ‹‰ä½SCLå‡†å¤‡ç»™SLAVEä¼ é€æ•°æ®
 780              		.loc 1 297 0
 781 0012 40F20003 		movw	r3, #:lower16:IO004_Handle0
 782 0016 C0F20003 		movt	r3, #:upper16:IO004_Handle0
 783 001a 5A68     		ldr	r2, [r3, #4]
 784 001c 40F20003 		movw	r3, #:lower16:IO004_Handle0
 785 0020 C0F20003 		movt	r3, #:upper16:IO004_Handle0
 786 0024 5B78     		ldrb	r3, [r3, #1]	@ zero_extendqisi2
 787 0026 4FF48031 		mov	r1, #65536
 788 002a 01FA03F3 		lsl	r3, r1, r3
 789 002e 5360     		str	r3, [r2, #4]
 298:../Main.c     ****         I2C_delay();
 790              		.loc 1 298 0
 791 0030 FFF7FEFF 		bl	I2C_delay
 299:../Main.c     ****         if (byte & 0x80)
 792              		.loc 1 299 0
 793 0034 FB79     		ldrb	r3, [r7, #7]	@ zero_extendqisi2
 794 0036 5BB2     		sxtb	r3, r3
 795 0038 002B     		cmp	r3, #0
 796 003a 0FDA     		bge	.L23
 300:../Main.c     ****             SDA_H;
 797              		.loc 1 300 0
 798 003c 40F20003 		movw	r3, #:lower16:IO004_Handle1
 799 0040 C0F20003 		movt	r3, #:upper16:IO004_Handle1
 800 0044 5A68     		ldr	r2, [r3, #4]
 801 0046 40F20003 		movw	r3, #:lower16:IO004_Handle1
 802 004a C0F20003 		movt	r3, #:upper16:IO004_Handle1
 803 004e 5B78     		ldrb	r3, [r3, #1]	@ zero_extendqisi2
 804 0050 4FF00101 		mov	r1, #1
 805 0054 01FA03F3 		lsl	r3, r1, r3
 806 0058 5360     		str	r3, [r2, #4]
 807 005a 0EE0     		b	.L24
 808              	.L23:
 301:../Main.c     ****         else
 302:../Main.c     ****             SDA_L;
 809              		.loc 1 302 0
 810 005c 40F20003 		movw	r3, #:lower16:IO004_Handle1
 811 0060 C0F20003 		movt	r3, #:upper16:IO004_Handle1
 812 0064 5A68     		ldr	r2, [r3, #4]
 813 0066 40F20003 		movw	r3, #:lower16:IO004_Handle1
 814 006a C0F20003 		movt	r3, #:upper16:IO004_Handle1
 815 006e 5B78     		ldrb	r3, [r3, #1]	@ zero_extendqisi2
 816 0070 4FF48031 		mov	r1, #65536
 817 0074 01FA03F3 		lsl	r3, r1, r3
 818 0078 5360     		str	r3, [r2, #4]
 819              	.L24:
 303:../Main.c     ****         byte <<= 1;
 820              		.loc 1 303 0
 821 007a FB79     		ldrb	r3, [r7, #7]
 822 007c 4FEA4303 		lsl	r3, r3, #1
 823 0080 FB71     		strb	r3, [r7, #7]
 304:../Main.c     ****         I2C_delay();
 824              		.loc 1 304 0
 825 0082 FFF7FEFF 		bl	I2C_delay
 305:../Main.c     ****         SCL_H;
 826              		.loc 1 305 0
 827 0086 40F20003 		movw	r3, #:lower16:IO004_Handle0
 828 008a C0F20003 		movt	r3, #:upper16:IO004_Handle0
 829 008e 5A68     		ldr	r2, [r3, #4]
 830 0090 40F20003 		movw	r3, #:lower16:IO004_Handle0
 831 0094 C0F20003 		movt	r3, #:upper16:IO004_Handle0
 832 0098 5B78     		ldrb	r3, [r3, #1]	@ zero_extendqisi2
 833 009a 4FF00101 		mov	r1, #1
 834 009e 01FA03F3 		lsl	r3, r1, r3
 835 00a2 5360     		str	r3, [r2, #4]
 306:../Main.c     ****         I2C_delay();
 836              		.loc 1 306 0
 837 00a4 FFF7FEFF 		bl	I2C_delay
 838              	.L22:
 296:../Main.c     ****     while (i--) {
 839              		.loc 1 296 0 discriminator 1
 840 00a8 FB7B     		ldrb	r3, [r7, #15]	@ zero_extendqisi2
 841 00aa 002B     		cmp	r3, #0
 842 00ac 0CBF     		ite	eq
 843 00ae 0023     		moveq	r3, #0
 844 00b0 0123     		movne	r3, #1
 845 00b2 DBB2     		uxtb	r3, r3
 846 00b4 FA7B     		ldrb	r2, [r7, #15]
 847 00b6 02F1FF32 		add	r2, r2, #-1
 848 00ba FA73     		strb	r2, [r7, #15]
 849 00bc 002B     		cmp	r3, #0
 850 00be A8D1     		bne	.L25
 307:../Main.c     ****     }
 308:../Main.c     ****     SCL_L;
 851              		.loc 1 308 0
 852 00c0 40F20003 		movw	r3, #:lower16:IO004_Handle0
 853 00c4 C0F20003 		movt	r3, #:upper16:IO004_Handle0
 854 00c8 5A68     		ldr	r2, [r3, #4]
 855 00ca 40F20003 		movw	r3, #:lower16:IO004_Handle0
 856 00ce C0F20003 		movt	r3, #:upper16:IO004_Handle0
 857 00d2 5B78     		ldrb	r3, [r3, #1]	@ zero_extendqisi2
 858 00d4 4FF48031 		mov	r1, #65536
 859 00d8 01FA03F3 		lsl	r3, r1, r3
 860 00dc 5360     		str	r3, [r2, #4]
 309:../Main.c     **** }
 861              		.loc 1 309 0
 862 00de 07F11007 		add	r7, r7, #16
 863 00e2 BD46     		mov	sp, r7
 864 00e4 80BD     		pop	{r7, pc}
 865              		.cfi_endproc
 866              	.LFE121:
 868 00e6 00BF     		.section	.text.I2C_ReceiveByte,"ax",%progbits
 869              		.align	2
 870              		.thumb
 871              		.thumb_func
 873              	I2C_ReceiveByte:
 874              	.LFB122:
 310:../Main.c     **** 
 311:../Main.c     **** static uint8_t I2C_ReceiveByte(void)
 312:../Main.c     **** {
 875              		.loc 1 312 0
 876              		.cfi_startproc
 877              		@ args = 0, pretend = 0, frame = 8
 878              		@ frame_needed = 1, uses_anonymous_args = 0
 879 0000 80B5     		push	{r7, lr}
 880              	.LCFI24:
 881              		.cfi_def_cfa_offset 8
 882              		.cfi_offset 7, -8
 883              		.cfi_offset 14, -4
 884 0002 82B0     		sub	sp, sp, #8
 885              	.LCFI25:
 886              		.cfi_def_cfa_offset 16
 887 0004 00AF     		add	r7, sp, #0
 888              	.LCFI26:
 889              		.cfi_def_cfa_register 7
 313:../Main.c     ****     uint8_t i = 8;
 890              		.loc 1 313 0
 891 0006 4FF00803 		mov	r3, #8
 892 000a FB71     		strb	r3, [r7, #7]
 314:../Main.c     ****     uint8_t byte = 0;
 893              		.loc 1 314 0
 894 000c 4FF00003 		mov	r3, #0
 895 0010 BB71     		strb	r3, [r7, #6]
 315:../Main.c     **** 
 316:../Main.c     ****     SDA_H;
 896              		.loc 1 316 0
 897 0012 40F20003 		movw	r3, #:lower16:IO004_Handle1
 898 0016 C0F20003 		movt	r3, #:upper16:IO004_Handle1
 899 001a 5A68     		ldr	r2, [r3, #4]
 900 001c 40F20003 		movw	r3, #:lower16:IO004_Handle1
 901 0020 C0F20003 		movt	r3, #:upper16:IO004_Handle1
 902 0024 5B78     		ldrb	r3, [r3, #1]	@ zero_extendqisi2
 903 0026 4FF00101 		mov	r1, #1
 904 002a 01FA03F3 		lsl	r3, r1, r3
 905 002e 5360     		str	r3, [r2, #4]
 317:../Main.c     ****     while (i--) {
 906              		.loc 1 317 0
 907 0030 2EE0     		b	.L27
 908              	.L28:
 318:../Main.c     ****         byte <<= 1;
 909              		.loc 1 318 0
 910 0032 BB79     		ldrb	r3, [r7, #6]
 911 0034 4FEA4303 		lsl	r3, r3, #1
 912 0038 BB71     		strb	r3, [r7, #6]
 319:../Main.c     ****         SCL_L;
 913              		.loc 1 319 0
 914 003a 40F20003 		movw	r3, #:lower16:IO004_Handle0
 915 003e C0F20003 		movt	r3, #:upper16:IO004_Handle0
 916 0042 5A68     		ldr	r2, [r3, #4]
 917 0044 40F20003 		movw	r3, #:lower16:IO004_Handle0
 918 0048 C0F20003 		movt	r3, #:upper16:IO004_Handle0
 919 004c 5B78     		ldrb	r3, [r3, #1]	@ zero_extendqisi2
 920 004e 4FF48031 		mov	r1, #65536
 921 0052 01FA03F3 		lsl	r3, r1, r3
 922 0056 5360     		str	r3, [r2, #4]
 320:../Main.c     ****         I2C_delay();
 923              		.loc 1 320 0
 924 0058 FFF7FEFF 		bl	I2C_delay
 321:../Main.c     ****         SCL_H;
 925              		.loc 1 321 0
 926 005c 40F20003 		movw	r3, #:lower16:IO004_Handle0
 927 0060 C0F20003 		movt	r3, #:upper16:IO004_Handle0
 928 0064 5A68     		ldr	r2, [r3, #4]
 929 0066 40F20003 		movw	r3, #:lower16:IO004_Handle0
 930 006a C0F20003 		movt	r3, #:upper16:IO004_Handle0
 931 006e 5B78     		ldrb	r3, [r3, #1]	@ zero_extendqisi2
 932 0070 4FF00101 		mov	r1, #1
 933 0074 01FA03F3 		lsl	r3, r1, r3
 934 0078 5360     		str	r3, [r2, #4]
 322:../Main.c     ****         I2C_delay();
 935              		.loc 1 322 0
 936 007a FFF7FEFF 		bl	I2C_delay
 323:../Main.c     ****         if (SDA_read) {
 937              		.loc 1 323 0
 938 007e FFF7FEFF 		bl	ReadSDA
 939 0082 0346     		mov	r3, r0
 940 0084 002B     		cmp	r3, #0
 941 0086 03D0     		beq	.L27
 324:../Main.c     ****             byte |= 0x01;
 942              		.loc 1 324 0
 943 0088 BB79     		ldrb	r3, [r7, #6]
 944 008a 43F00103 		orr	r3, r3, #1
 945 008e BB71     		strb	r3, [r7, #6]
 946              	.L27:
 317:../Main.c     ****     while (i--) {
 947              		.loc 1 317 0 discriminator 1
 948 0090 FB79     		ldrb	r3, [r7, #7]	@ zero_extendqisi2
 949 0092 002B     		cmp	r3, #0
 950 0094 0CBF     		ite	eq
 951 0096 0023     		moveq	r3, #0
 952 0098 0123     		movne	r3, #1
 953 009a DBB2     		uxtb	r3, r3
 954 009c FA79     		ldrb	r2, [r7, #7]
 955 009e 02F1FF32 		add	r2, r2, #-1
 956 00a2 FA71     		strb	r2, [r7, #7]
 957 00a4 002B     		cmp	r3, #0
 958 00a6 C4D1     		bne	.L28
 325:../Main.c     ****         }
 326:../Main.c     ****     //    IO004_EnableOutputDriver(&IO004_Handle1,OUTPUT_OD_GP);
 327:../Main.c     ****     }
 328:../Main.c     ****     SCL_L;
 959              		.loc 1 328 0
 960 00a8 40F20003 		movw	r3, #:lower16:IO004_Handle0
 961 00ac C0F20003 		movt	r3, #:upper16:IO004_Handle0
 962 00b0 5A68     		ldr	r2, [r3, #4]
 963 00b2 40F20003 		movw	r3, #:lower16:IO004_Handle0
 964 00b6 C0F20003 		movt	r3, #:upper16:IO004_Handle0
 965 00ba 5B78     		ldrb	r3, [r3, #1]	@ zero_extendqisi2
 966 00bc 4FF48031 		mov	r1, #65536
 967 00c0 01FA03F3 		lsl	r3, r1, r3
 968 00c4 5360     		str	r3, [r2, #4]
 329:../Main.c     ****     return byte;
 969              		.loc 1 329 0
 970 00c6 BB79     		ldrb	r3, [r7, #6]	@ zero_extendqisi2
 330:../Main.c     **** }
 971              		.loc 1 330 0
 972 00c8 1846     		mov	r0, r3
 973 00ca 07F10807 		add	r7, r7, #8
 974 00ce BD46     		mov	sp, r7
 975 00d0 80BD     		pop	{r7, pc}
 976              		.cfi_endproc
 977              	.LFE122:
 979 00d2 00BF     		.section	.text.i2cWriteBuffer,"ax",%progbits
 980              		.align	2
 981              		.global	i2cWriteBuffer
 982              		.thumb
 983              		.thumb_func
 985              	i2cWriteBuffer:
 986              	.LFB123:
 331:../Main.c     **** 
 332:../Main.c     **** #if 0
 333:../Main.c     **** void i2cInit(void)
 334:../Main.c     **** {
 335:../Main.c     ****   GPIO_InitTypeDef gpio;
 336:../Main.c     **** 	RCC_APB2PeriphClockCmd(RCC_APB2Periph_GPIOB , ENABLE);
 337:../Main.c     ****     gpio.GPIO_Pin = GPIO_Pin_8 | GPIO_Pin_9;
 338:../Main.c     ****     gpio.GPIO_Speed = GPIO_Speed_2MHz;
 339:../Main.c     ****     gpio.GPIO_Mode = GPIO_Mode_Out_OD;
 340:../Main.c     ****     GPIO_Init(GPIOB, &gpio);
 341:../Main.c     **** 	/*
 342:../Main.c     ****     I2C_InitTypeDef  I2C_InitStructure;
 343:../Main.c     ****     GPIO_InitTypeDef  GPIO_InitStructure;
 344:../Main.c     **** 
 345:../Main.c     ****     RCC_APB1PeriphClockCmd(RCC_APB1Periph_I2C1,ENABLE);
 346:../Main.c     ****     RCC_APB2PeriphClockCmd(RCC_APB2Periph_AFIO,ENABLE);
 347:../Main.c     **** 
 348:../Main.c     ****     //PB8,9 SCL and SDA
 349:../Main.c     ****     GPIO_InitStructure.GPIO_Pin =  GPIO_Pin_8 | GPIO_Pin_9;
 350:../Main.c     ****     GPIO_InitStructure.GPIO_Speed = GPIO_Speed_50MHz;
 351:../Main.c     ****     GPIO_InitStructure.GPIO_Mode = GPIO_Mode_AF_OD;
 352:../Main.c     ****     GPIO_Init(GPIOB, &GPIO_InitStructure);
 353:../Main.c     **** 
 354:../Main.c     ****     // I2C1_SCL on PB08, I2C1_SDA on PB09
 355:../Main.c     ****     GPIO_PinRemapConfig(GPIO_Remap_I2C1, ENABLE);   //
 356:../Main.c     **** 
 357:../Main.c     ****     //I2C_DeInit(I2C1);
 358:../Main.c     ****     I2C_InitStructure.I2C_Mode = I2C_Mode_I2C;
 359:../Main.c     ****     //I2C_InitStructure.I2C_DutyCycle = I2C_DutyCycle_2;
 360:../Main.c     ****     //I2C_InitStructure.I2C_OwnAddress1 = 0x30;
 361:../Main.c     ****     I2C_InitStructure.I2C_Ack = I2C_Ack_Enable;
 362:../Main.c     ****     I2C_InitStructure.I2C_AcknowledgedAddress = I2C_AcknowledgedAddress_7bit;
 363:../Main.c     ****     I2C_InitStructure.I2C_ClockSpeed = 100000;//100K
 364:../Main.c     **** 
 365:../Main.c     ****     I2C_Cmd(I2C1, ENABLE);
 366:../Main.c     ****     I2C_Init(I2C1, &I2C_InitStructure);
 367:../Main.c     ****     //
 368:../Main.c     ****     I2C_AcknowledgeConfig(I2C1, ENABLE);   */
 369:../Main.c     **** }
 370:../Main.c     **** #endif
 371:../Main.c     **** bool i2cWriteBuffer(uint8_t addr, uint8_t reg, uint8_t len, uint8_t * data)
 372:../Main.c     **** {
 987              		.loc 1 372 0
 988              		.cfi_startproc
 989              		@ args = 0, pretend = 0, frame = 16
 990              		@ frame_needed = 1, uses_anonymous_args = 0
 991 0000 80B5     		push	{r7, lr}
 992              	.LCFI27:
 993              		.cfi_def_cfa_offset 8
 994              		.cfi_offset 7, -8
 995              		.cfi_offset 14, -4
 996 0002 84B0     		sub	sp, sp, #16
 997              	.LCFI28:
 998              		.cfi_def_cfa_offset 24
 999 0004 00AF     		add	r7, sp, #0
 1000              	.LCFI29:
 1001              		.cfi_def_cfa_register 7
 1002 0006 3B60     		str	r3, [r7, #0]
 1003 0008 0346     		mov	r3, r0
 1004 000a FB71     		strb	r3, [r7, #7]
 1005 000c 0B46     		mov	r3, r1
 1006 000e BB71     		strb	r3, [r7, #6]
 1007 0010 1346     		mov	r3, r2
 1008 0012 7B71     		strb	r3, [r7, #5]
 373:../Main.c     ****     int i;
 374:../Main.c     ****     if (!I2C_Start())
 1009              		.loc 1 374 0
 1010 0014 FFF7FEFF 		bl	I2C_Start
 1011 0018 0346     		mov	r3, r0
 1012 001a 002B     		cmp	r3, #0
 1013 001c 02D1     		bne	.L31
 375:../Main.c     ****     {
 376:../Main.c     ****         return FALSE;
 1014              		.loc 1 376 0
 1015 001e 4FF00003 		mov	r3, #0
 1016 0022 37E0     		b	.L32
 1017              	.L31:
 377:../Main.c     ****     }
 378:../Main.c     ****     I2C_SendByte(addr << 1 | I2C_Direction_Transmitter);//I2C_Direction_Transmitter:Ğ´
 1018              		.loc 1 378 0
 1019 0024 FB79     		ldrb	r3, [r7, #7]
 1020 0026 4FEA4303 		lsl	r3, r3, #1
 1021 002a DBB2     		uxtb	r3, r3
 1022 002c 1846     		mov	r0, r3
 1023 002e FFF7FEFF 		bl	I2C_SendByte
 379:../Main.c     ****     if (!I2C_WaitAck()) {
 1024              		.loc 1 379 0
 1025 0032 FFF7FEFF 		bl	I2C_WaitAck
 1026 0036 0346     		mov	r3, r0
 1027 0038 002B     		cmp	r3, #0
 1028 003a 04D1     		bne	.L33
 380:../Main.c     ****         I2C_Stop();
 1029              		.loc 1 380 0
 1030 003c FFF7FEFF 		bl	I2C_Stop
 381:../Main.c     ****         return FALSE;
 1031              		.loc 1 381 0
 1032 0040 4FF00003 		mov	r3, #0
 1033 0044 26E0     		b	.L32
 1034              	.L33:
 382:../Main.c     ****     }
 383:../Main.c     ****     I2C_SendByte(reg);
 1035              		.loc 1 383 0
 1036 0046 BB79     		ldrb	r3, [r7, #6]	@ zero_extendqisi2
 1037 0048 1846     		mov	r0, r3
 1038 004a FFF7FEFF 		bl	I2C_SendByte
 384:../Main.c     ****     I2C_WaitAck();
 1039              		.loc 1 384 0
 1040 004e FFF7FEFF 		bl	I2C_WaitAck
 385:../Main.c     ****     for (i = 0; i < len; i++) {
 1041              		.loc 1 385 0
 1042 0052 4FF00003 		mov	r3, #0
 1043 0056 FB60     		str	r3, [r7, #12]
 1044 0058 14E0     		b	.L34
 1045              	.L36:
 386:../Main.c     ****         I2C_SendByte(data[i]);
 1046              		.loc 1 386 0
 1047 005a FB68     		ldr	r3, [r7, #12]
 1048 005c 3A68     		ldr	r2, [r7, #0]
 1049 005e D318     		adds	r3, r2, r3
 1050 0060 1B78     		ldrb	r3, [r3, #0]	@ zero_extendqisi2
 1051 0062 1846     		mov	r0, r3
 1052 0064 FFF7FEFF 		bl	I2C_SendByte
 387:../Main.c     ****         if (!I2C_WaitAck()) {
 1053              		.loc 1 387 0
 1054 0068 FFF7FEFF 		bl	I2C_WaitAck
 1055 006c 0346     		mov	r3, r0
 1056 006e 002B     		cmp	r3, #0
 1057 0070 04D1     		bne	.L35
 388:../Main.c     ****             I2C_Stop();
 1058              		.loc 1 388 0
 1059 0072 FFF7FEFF 		bl	I2C_Stop
 389:../Main.c     ****             return FALSE;
 1060              		.loc 1 389 0
 1061 0076 4FF00003 		mov	r3, #0
 1062 007a 0BE0     		b	.L32
 1063              	.L35:
 385:../Main.c     ****     for (i = 0; i < len; i++) {
 1064              		.loc 1 385 0
 1065 007c FB68     		ldr	r3, [r7, #12]
 1066 007e 03F10103 		add	r3, r3, #1
 1067 0082 FB60     		str	r3, [r7, #12]
 1068              	.L34:
 385:../Main.c     ****     for (i = 0; i < len; i++) {
 1069              		.loc 1 385 0 is_stmt 0 discriminator 1
 1070 0084 7A79     		ldrb	r2, [r7, #5]	@ zero_extendqisi2
 1071 0086 FB68     		ldr	r3, [r7, #12]
 1072 0088 9A42     		cmp	r2, r3
 1073 008a E6DC     		bgt	.L36
 390:../Main.c     ****         }
 391:../Main.c     ****     }
 392:../Main.c     ****     I2C_Stop();
 1074              		.loc 1 392 0 is_stmt 1
 1075 008c FFF7FEFF 		bl	I2C_Stop
 393:../Main.c     ****     return TRUE;
 1076              		.loc 1 393 0
 1077 0090 4FF00103 		mov	r3, #1
 1078              	.L32:
 394:../Main.c     **** }
 1079              		.loc 1 394 0
 1080 0094 1846     		mov	r0, r3
 1081 0096 07F11007 		add	r7, r7, #16
 1082 009a BD46     		mov	sp, r7
 1083 009c 80BD     		pop	{r7, pc}
 1084              		.cfi_endproc
 1085              	.LFE123:
 1087 009e 00BF     		.section	.text.Single_Write,"ax",%progbits
 1088              		.align	2
 1089              		.global	Single_Write
 1090              		.thumb
 1091              		.thumb_func
 1093              	Single_Write:
 1094              	.LFB124:
 395:../Main.c     **** //å•å­—èŠ‚å†™å…¥*******************************************
 396:../Main.c     **** 
 397:../Main.c     **** 
 398:../Main.c     **** 
 399:../Main.c     **** bool Single_Write(unsigned char SlaveAddress,unsigned char REG_Address,unsigned char REG_data)		   
 400:../Main.c     **** 
 401:../Main.c     **** {
 1095              		.loc 1 401 0
 1096              		.cfi_startproc
 1097              		@ args = 0, pretend = 0, frame = 8
 1098              		@ frame_needed = 1, uses_anonymous_args = 0
 1099 0000 80B5     		push	{r7, lr}
 1100              	.LCFI30:
 1101              		.cfi_def_cfa_offset 8
 1102              		.cfi_offset 7, -8
 1103              		.cfi_offset 14, -4
 1104 0002 82B0     		sub	sp, sp, #8
 1105              	.LCFI31:
 1106              		.cfi_def_cfa_offset 16
 1107 0004 00AF     		add	r7, sp, #0
 1108              	.LCFI32:
 1109              		.cfi_def_cfa_register 7
 1110 0006 1346     		mov	r3, r2
 1111 0008 0246     		mov	r2, r0
 1112 000a FA71     		strb	r2, [r7, #7]
 1113 000c 0A46     		mov	r2, r1
 1114 000e BA71     		strb	r2, [r7, #6]
 1115 0010 7B71     		strb	r3, [r7, #5]
 402:../Main.c     **** 
 403:../Main.c     ****   	if(!I2C_Start())return FALSE;
 1116              		.loc 1 403 0
 1117 0012 FFF7FEFF 		bl	I2C_Start
 1118 0016 0346     		mov	r3, r0
 1119 0018 002B     		cmp	r3, #0
 1120 001a 02D1     		bne	.L38
 1121              		.loc 1 403 0 is_stmt 0 discriminator 1
 1122 001c 4FF00003 		mov	r3, #0
 1123 0020 1DE0     		b	.L39
 1124              	.L38:
 404:../Main.c     **** 
 405:../Main.c     ****     I2C_SendByte(SlaveAddress);   //å‘é€è®¾å¤‡åœ°å€+å†™ä¿¡å·//I2C_SendByte(((REG_Address & 0x07
 1125              		.loc 1 405 0 is_stmt 1
 1126 0022 FB79     		ldrb	r3, [r7, #7]	@ zero_extendqisi2
 1127 0024 1846     		mov	r0, r3
 1128 0026 FFF7FEFF 		bl	I2C_SendByte
 406:../Main.c     **** 
 407:../Main.c     ****     if(!I2C_WaitAck()){I2C_Stop(); return FALSE;}
 1129              		.loc 1 407 0
 1130 002a FFF7FEFF 		bl	I2C_WaitAck
 1131 002e 0346     		mov	r3, r0
 1132 0030 002B     		cmp	r3, #0
 1133 0032 04D1     		bne	.L40
 1134              		.loc 1 407 0 is_stmt 0 discriminator 1
 1135 0034 FFF7FEFF 		bl	I2C_Stop
 1136 0038 4FF00003 		mov	r3, #0
 1137 003c 0FE0     		b	.L39
 1138              	.L40:
 408:../Main.c     **** 
 409:../Main.c     ****     I2C_SendByte(REG_Address );   //è®¾ç½®ä½èµ·å§‹åœ°å€
 1139              		.loc 1 409 0 is_stmt 1
 1140 003e BB79     		ldrb	r3, [r7, #6]	@ zero_extendqisi2
 1141 0040 1846     		mov	r0, r3
 1142 0042 FFF7FEFF 		bl	I2C_SendByte
 410:../Main.c     **** 
 411:../Main.c     ****     I2C_WaitAck();
 1143              		.loc 1 411 0
 1144 0046 FFF7FEFF 		bl	I2C_WaitAck
 412:../Main.c     **** 
 413:../Main.c     ****     I2C_SendByte(REG_data);
 1145              		.loc 1 413 0
 1146 004a 7B79     		ldrb	r3, [r7, #5]	@ zero_extendqisi2
 1147 004c 1846     		mov	r0, r3
 1148 004e FFF7FEFF 		bl	I2C_SendByte
 414:../Main.c     **** 
 415:../Main.c     ****     I2C_WaitAck();
 1149              		.loc 1 415 0
 1150 0052 FFF7FEFF 		bl	I2C_WaitAck
 416:../Main.c     **** 
 417:../Main.c     ****     I2C_Stop();
 1151              		.loc 1 417 0
 1152 0056 FFF7FEFF 		bl	I2C_Stop
 418:../Main.c     **** 
 419:../Main.c     ****  //   delay5ms();// TODO:   éœ€è¦å®ç°
 420:../Main.c     **** 
 421:../Main.c     ****     return TRUE;
 1153              		.loc 1 421 0
 1154 005a 4FF00103 		mov	r3, #1
 1155              	.L39:
 422:../Main.c     **** 
 423:../Main.c     **** }
 1156              		.loc 1 423 0
 1157 005e 1846     		mov	r0, r3
 1158 0060 07F10807 		add	r7, r7, #8
 1159 0064 BD46     		mov	sp, r7
 1160 0066 80BD     		pop	{r7, pc}
 1161              		.cfi_endproc
 1162              	.LFE124:
 1164              		.section	.text.Single_Read,"ax",%progbits
 1165              		.align	2
 1166              		.global	Single_Read
 1167              		.thumb
 1168              		.thumb_func
 1170              	Single_Read:
 1171              	.LFB125:
 424:../Main.c     **** 
 425:../Main.c     **** 
 426:../Main.c     **** 
 427:../Main.c     **** //å•å­—èŠ‚è¯»å–*****************************************
 428:../Main.c     **** 
 429:../Main.c     **** unsigned char Single_Read(unsigned char SlaveAddress,unsigned char REG_Address)
 430:../Main.c     **** 
 431:../Main.c     **** {   unsigned char REG_data;
 1172              		.loc 1 431 0
 1173              		.cfi_startproc
 1174              		@ args = 0, pretend = 0, frame = 16
 1175              		@ frame_needed = 1, uses_anonymous_args = 0
 1176 0000 80B5     		push	{r7, lr}
 1177              	.LCFI33:
 1178              		.cfi_def_cfa_offset 8
 1179              		.cfi_offset 7, -8
 1180              		.cfi_offset 14, -4
 1181 0002 84B0     		sub	sp, sp, #16
 1182              	.LCFI34:
 1183              		.cfi_def_cfa_offset 24
 1184 0004 00AF     		add	r7, sp, #0
 1185              	.LCFI35:
 1186              		.cfi_def_cfa_register 7
 1187 0006 0246     		mov	r2, r0
 1188 0008 0B46     		mov	r3, r1
 1189 000a FA71     		strb	r2, [r7, #7]
 1190 000c BB71     		strb	r3, [r7, #6]
 432:../Main.c     **** 
 433:../Main.c     **** 	if(!I2C_Start())return FALSE;
 1191              		.loc 1 433 0
 1192 000e FFF7FEFF 		bl	I2C_Start
 1193 0012 0346     		mov	r3, r0
 1194 0014 002B     		cmp	r3, #0
 1195 0016 02D1     		bne	.L42
 1196              		.loc 1 433 0 is_stmt 0 discriminator 1
 1197 0018 4FF00003 		mov	r3, #0
 1198 001c 2EE0     		b	.L43
 1199              	.L42:
 434:../Main.c     **** 
 435:../Main.c     ****     I2C_SendByte(SlaveAddress); //I2C_SendByte(((REG_Address & 0x0700) >>7) | REG_Address & 0xFFFE)
 1200              		.loc 1 435 0 is_stmt 1
 1201 001e FB79     		ldrb	r3, [r7, #7]	@ zero_extendqisi2
 1202 0020 1846     		mov	r0, r3
 1203 0022 FFF7FEFF 		bl	I2C_SendByte
 436:../Main.c     **** 
 437:../Main.c     ****     if(!I2C_WaitAck()){I2C_Stop();test=1; return FALSE;}
 1204              		.loc 1 437 0
 1205 0026 FFF7FEFF 		bl	I2C_WaitAck
 1206 002a 0346     		mov	r3, r0
 1207 002c 002B     		cmp	r3, #0
 1208 002e 0BD1     		bne	.L44
 1209              		.loc 1 437 0 is_stmt 0 discriminator 1
 1210 0030 FFF7FEFF 		bl	I2C_Stop
 1211 0034 40F20003 		movw	r3, #:lower16:test
 1212 0038 C0F20003 		movt	r3, #:upper16:test
 1213 003c 4FF00102 		mov	r2, #1
 1214 0040 1A70     		strb	r2, [r3, #0]
 1215 0042 4FF00003 		mov	r3, #0
 1216 0046 19E0     		b	.L43
 1217              	.L44:
 438:../Main.c     **** 
 439:../Main.c     ****     I2C_SendByte((u8) REG_Address);   //è®¾ç½®ä½èµ·å§‹åœ°å€
 1218              		.loc 1 439 0 is_stmt 1
 1219 0048 BB79     		ldrb	r3, [r7, #6]	@ zero_extendqisi2
 1220 004a 1846     		mov	r0, r3
 1221 004c FFF7FEFF 		bl	I2C_SendByte
 440:../Main.c     **** 
 441:../Main.c     ****     I2C_WaitAck();
 1222              		.loc 1 441 0
 1223 0050 FFF7FEFF 		bl	I2C_WaitAck
 442:../Main.c     **** 
 443:../Main.c     ****     I2C_Start();
 1224              		.loc 1 443 0
 1225 0054 FFF7FEFF 		bl	I2C_Start
 444:../Main.c     **** 
 445:../Main.c     ****     I2C_SendByte(SlaveAddress+1);
 1226              		.loc 1 445 0
 1227 0058 FB79     		ldrb	r3, [r7, #7]
 1228 005a 03F10103 		add	r3, r3, #1
 1229 005e DBB2     		uxtb	r3, r3
 1230 0060 1846     		mov	r0, r3
 1231 0062 FFF7FEFF 		bl	I2C_SendByte
 446:../Main.c     **** 
 447:../Main.c     ****     I2C_WaitAck();
 1232              		.loc 1 447 0
 1233 0066 FFF7FEFF 		bl	I2C_WaitAck
 448:../Main.c     **** 
 449:../Main.c     **** 
 450:../Main.c     **** 
 451:../Main.c     **** 	REG_data= I2C_ReceiveByte();
 1234              		.loc 1 451 0
 1235 006a FFF7FEFF 		bl	I2C_ReceiveByte
 1236 006e 0346     		mov	r3, r0
 1237 0070 FB73     		strb	r3, [r7, #15]
 452:../Main.c     **** 
 453:../Main.c     ****     I2C_NoAck();
 1238              		.loc 1 453 0
 1239 0072 FFF7FEFF 		bl	I2C_NoAck
 454:../Main.c     **** 
 455:../Main.c     ****     I2C_Stop();
 1240              		.loc 1 455 0
 1241 0076 FFF7FEFF 		bl	I2C_Stop
 456:../Main.c     **** 
 457:../Main.c     ****     //return TRUE;
 458:../Main.c     **** 
 459:../Main.c     **** 	return REG_data;
 1242              		.loc 1 459 0
 1243 007a FB7B     		ldrb	r3, [r7, #15]	@ zero_extendqisi2
 1244              	.L43:
 460:../Main.c     **** 
 461:../Main.c     **** 
 462:../Main.c     **** 
 463:../Main.c     **** }
 1245              		.loc 1 463 0
 1246 007c 1846     		mov	r0, r3
 1247 007e 07F11007 		add	r7, r7, #16
 1248 0082 BD46     		mov	sp, r7
 1249 0084 80BD     		pop	{r7, pc}
 1250              		.cfi_endproc
 1251              	.LFE125:
 1253 0086 00BF     		.section	.text.Init_MPU6050,"ax",%progbits
 1254              		.align	2
 1255              		.global	Init_MPU6050
 1256              		.thumb
 1257              		.thumb_func
 1259              	Init_MPU6050:
 1260              	.LFB126:
 464:../Main.c     **** void Init_MPU6050(void)
 465:../Main.c     **** 
 466:../Main.c     **** {
 1261              		.loc 1 466 0
 1262              		.cfi_startproc
 1263              		@ args = 0, pretend = 0, frame = 0
 1264              		@ frame_needed = 1, uses_anonymous_args = 0
 1265 0000 80B5     		push	{r7, lr}
 1266              	.LCFI36:
 1267              		.cfi_def_cfa_offset 8
 1268              		.cfi_offset 7, -8
 1269              		.cfi_offset 14, -4
 1270 0002 00AF     		add	r7, sp, #0
 1271              	.LCFI37:
 1272              		.cfi_def_cfa_register 7
 467:../Main.c     **** 
 468:../Main.c     **** /*
 469:../Main.c     **** 
 470:../Main.c     ****    Single_Write(MPU6050_Addr,PWR_M, 0x80);   //
 471:../Main.c     **** 
 472:../Main.c     ****    Single_Write(MPU6050_Addr,SMPL, 0x07);    //
 473:../Main.c     **** 
 474:../Main.c     ****    Single_Write(MPU6050_Addr,DLPF, 0x1E);    //Â±2000Â°
 475:../Main.c     **** 
 476:../Main.c     ****    Single_Write(MPU6050_Addr,INT_C, 0x00 );  //
 477:../Main.c     **** 
 478:../Main.c     ****    Single_Write(MPU6050_Addr,PWR_M, 0x00);   //
 479:../Main.c     **** 
 480:../Main.c     **** */
 481:../Main.c     **** 
 482:../Main.c     ****    	Single_Write(MPU6050_Addr,PWR_MGMT_1, 0x00);	//è§£é™¤ä¼‘çœ çŠ¶æ€
 1273              		.loc 1 482 0
 1274 0004 4FF0D000 		mov	r0, #208
 1275 0008 4FF06B01 		mov	r1, #107
 1276 000c 4FF00002 		mov	r2, #0
 1277 0010 FFF7FEFF 		bl	Single_Write
 483:../Main.c     **** 
 484:../Main.c     **** 	Single_Write(MPU6050_Addr,SMPLRT_DIV, 0x07);
 1278              		.loc 1 484 0
 1279 0014 4FF0D000 		mov	r0, #208
 1280 0018 4FF01901 		mov	r1, #25
 1281 001c 4FF00702 		mov	r2, #7
 1282 0020 FFF7FEFF 		bl	Single_Write
 485:../Main.c     **** 
 486:../Main.c     **** 	Single_Write(MPU6050_Addr,CONFIG, 0x06);
 1283              		.loc 1 486 0
 1284 0024 4FF0D000 		mov	r0, #208
 1285 0028 4FF01A01 		mov	r1, #26
 1286 002c 4FF00602 		mov	r2, #6
 1287 0030 FFF7FEFF 		bl	Single_Write
 487:../Main.c     **** 
 488:../Main.c     **** 	Single_Write(MPU6050_Addr,GYRO_CONFIG, 0x18);
 1288              		.loc 1 488 0
 1289 0034 4FF0D000 		mov	r0, #208
 1290 0038 4FF01B01 		mov	r1, #27
 1291 003c 4FF01802 		mov	r2, #24
 1292 0040 FFF7FEFF 		bl	Single_Write
 489:../Main.c     **** 
 490:../Main.c     **** 	Single_Write(MPU6050_Addr,ACCEL_CONFIG, 0x01);
 1293              		.loc 1 490 0
 1294 0044 4FF0D000 		mov	r0, #208
 1295 0048 4FF01C01 		mov	r1, #28
 1296 004c 4FF00102 		mov	r2, #1
 1297 0050 FFF7FEFF 		bl	Single_Write
 491:../Main.c     **** 
 492:../Main.c     **** }
 1298              		.loc 1 492 0
 1299 0054 80BD     		pop	{r7, pc}
 1300              		.cfi_endproc
 1301              	.LFE126:
 1303              		.global	__aeabi_i2d
 1304              		.global	__aeabi_ddiv
 1305              		.global	__aeabi_d2iz
 1306 0056 00BF     		.section	.text.READ_MPU6050,"ax",%progbits
 1307              		.align	2
 1308              		.global	READ_MPU6050
 1309              		.thumb
 1310              		.thumb_func
 1312              	READ_MPU6050:
 1313              	.LFB127:
 493:../Main.c     **** //******è¯»å–MPU6050æ•°æ®****************************************
 494:../Main.c     **** 
 495:../Main.c     **** void READ_MPU6050(void)
 496:../Main.c     **** 
 497:../Main.c     **** {
 1314              		.loc 1 497 0
 1315              		.cfi_startproc
 1316              		@ args = 0, pretend = 0, frame = 0
 1317              		@ frame_needed = 1, uses_anonymous_args = 0
 1318 0000 80B5     		push	{r7, lr}
 1319              	.LCFI38:
 1320              		.cfi_def_cfa_offset 8
 1321              		.cfi_offset 7, -8
 1322              		.cfi_offset 14, -4
 1323 0002 00AF     		add	r7, sp, #0
 1324              	.LCFI39:
 1325              		.cfi_def_cfa_register 7
 498:../Main.c     **** 
 499:../Main.c     ****    BUF[0]=Single_Read(MPU6050_Addr,GYRO_XOUT_L);
 1326              		.loc 1 499 0
 1327 0004 4FF0D000 		mov	r0, #208
 1328 0008 4FF04401 		mov	r1, #68
 1329 000c FFF7FEFF 		bl	Single_Read
 1330 0010 0346     		mov	r3, r0
 1331 0012 1A46     		mov	r2, r3
 1332 0014 40F20003 		movw	r3, #:lower16:BUF
 1333 0018 C0F20003 		movt	r3, #:upper16:BUF
 1334 001c 1A70     		strb	r2, [r3, #0]
 500:../Main.c     **** 
 501:../Main.c     ****    BUF[1]=Single_Read(MPU6050_Addr,GYRO_XOUT_H);
 1335              		.loc 1 501 0
 1336 001e 4FF0D000 		mov	r0, #208
 1337 0022 4FF04301 		mov	r1, #67
 1338 0026 FFF7FEFF 		bl	Single_Read
 1339 002a 0346     		mov	r3, r0
 1340 002c 1A46     		mov	r2, r3
 1341 002e 40F20003 		movw	r3, #:lower16:BUF
 1342 0032 C0F20003 		movt	r3, #:upper16:BUF
 1343 0036 5A70     		strb	r2, [r3, #1]
 502:../Main.c     **** 
 503:../Main.c     ****    T_X=	(BUF[1]<<8)|BUF[0];
 1344              		.loc 1 503 0
 1345 0038 40F20003 		movw	r3, #:lower16:BUF
 1346 003c C0F20003 		movt	r3, #:upper16:BUF
 1347 0040 5B78     		ldrb	r3, [r3, #1]	@ zero_extendqisi2
 1348 0042 4FEA0323 		lsl	r3, r3, #8
 1349 0046 9AB2     		uxth	r2, r3
 1350 0048 40F20003 		movw	r3, #:lower16:BUF
 1351 004c C0F20003 		movt	r3, #:upper16:BUF
 1352 0050 1B78     		ldrb	r3, [r3, #0]	@ zero_extendqisi2
 1353 0052 1343     		orrs	r3, r3, r2
 1354 0054 9AB2     		uxth	r2, r3
 1355 0056 40F20003 		movw	r3, #:lower16:T_X
 1356 005a C0F20003 		movt	r3, #:upper16:T_X
 1357 005e 1A80     		strh	r2, [r3, #0]	@ movhi
 504:../Main.c     **** 
 505:../Main.c     ****    T_X/=16.4; 						   //è¯»å–è®¡ç®—Xè½´æ•°æ®
 1358              		.loc 1 505 0
 1359 0060 40F20003 		movw	r3, #:lower16:T_X
 1360 0064 C0F20003 		movt	r3, #:upper16:T_X
 1361 0068 1B88     		ldrh	r3, [r3, #0]
 1362 006a 1BB2     		sxth	r3, r3
 1363 006c 1846     		mov	r0, r3
 1364 006e FFF7FEFF 		bl	__aeabi_i2d
 1365 0072 0246     		mov	r2, r0
 1366 0074 0B46     		mov	r3, r1
 1367 0076 1046     		mov	r0, r2
 1368 0078 1946     		mov	r1, r3
 1369 007a 57A3     		adr	r3, .L47
 1370 007c D3E90023 		ldrd	r2, [r3]
 1371 0080 FFF7FEFF 		bl	__aeabi_ddiv
 1372 0084 0246     		mov	r2, r0
 1373 0086 0B46     		mov	r3, r1
 1374 0088 1046     		mov	r0, r2
 1375 008a 1946     		mov	r1, r3
 1376 008c FFF7FEFF 		bl	__aeabi_d2iz
 1377 0090 0346     		mov	r3, r0
 1378 0092 9AB2     		uxth	r2, r3
 1379 0094 40F20003 		movw	r3, #:lower16:T_X
 1380 0098 C0F20003 		movt	r3, #:upper16:T_X
 1381 009c 1A80     		strh	r2, [r3, #0]	@ movhi
 506:../Main.c     **** 
 507:../Main.c     **** 
 508:../Main.c     **** 
 509:../Main.c     ****    BUF[2]=Single_Read(MPU6050_Addr,GYRO_YOUT_L);
 1382              		.loc 1 509 0
 1383 009e 4FF0D000 		mov	r0, #208
 1384 00a2 4FF04601 		mov	r1, #70
 1385 00a6 FFF7FEFF 		bl	Single_Read
 1386 00aa 0346     		mov	r3, r0
 1387 00ac 1A46     		mov	r2, r3
 1388 00ae 40F20003 		movw	r3, #:lower16:BUF
 1389 00b2 C0F20003 		movt	r3, #:upper16:BUF
 1390 00b6 9A70     		strb	r2, [r3, #2]
 510:../Main.c     **** 
 511:../Main.c     ****    BUF[3]=Single_Read(MPU6050_Addr,GYRO_YOUT_H);
 1391              		.loc 1 511 0
 1392 00b8 4FF0D000 		mov	r0, #208
 1393 00bc 4FF04501 		mov	r1, #69
 1394 00c0 FFF7FEFF 		bl	Single_Read
 1395 00c4 0346     		mov	r3, r0
 1396 00c6 1A46     		mov	r2, r3
 1397 00c8 40F20003 		movw	r3, #:lower16:BUF
 1398 00cc C0F20003 		movt	r3, #:upper16:BUF
 1399 00d0 DA70     		strb	r2, [r3, #3]
 512:../Main.c     **** 
 513:../Main.c     ****    T_Y=	(BUF[3]<<8)|BUF[2];
 1400              		.loc 1 513 0
 1401 00d2 40F20003 		movw	r3, #:lower16:BUF
 1402 00d6 C0F20003 		movt	r3, #:upper16:BUF
 1403 00da DB78     		ldrb	r3, [r3, #3]	@ zero_extendqisi2
 1404 00dc 4FEA0323 		lsl	r3, r3, #8
 1405 00e0 9AB2     		uxth	r2, r3
 1406 00e2 40F20003 		movw	r3, #:lower16:BUF
 1407 00e6 C0F20003 		movt	r3, #:upper16:BUF
 1408 00ea 9B78     		ldrb	r3, [r3, #2]	@ zero_extendqisi2
 1409 00ec 1343     		orrs	r3, r3, r2
 1410 00ee 9AB2     		uxth	r2, r3
 1411 00f0 40F20003 		movw	r3, #:lower16:T_Y
 1412 00f4 C0F20003 		movt	r3, #:upper16:T_Y
 1413 00f8 1A80     		strh	r2, [r3, #0]	@ movhi
 514:../Main.c     **** 
 515:../Main.c     ****    T_Y/=16.4; 						   //è¯»å–è®¡ç®—Yè½´æ•°æ®
 1414              		.loc 1 515 0
 1415 00fa 40F20003 		movw	r3, #:lower16:T_Y
 1416 00fe C0F20003 		movt	r3, #:upper16:T_Y
 1417 0102 1B88     		ldrh	r3, [r3, #0]
 1418 0104 1BB2     		sxth	r3, r3
 1419 0106 1846     		mov	r0, r3
 1420 0108 FFF7FEFF 		bl	__aeabi_i2d
 1421 010c 0246     		mov	r2, r0
 1422 010e 0B46     		mov	r3, r1
 1423 0110 1046     		mov	r0, r2
 1424 0112 1946     		mov	r1, r3
 1425 0114 30A3     		adr	r3, .L47
 1426 0116 D3E90023 		ldrd	r2, [r3]
 1427 011a FFF7FEFF 		bl	__aeabi_ddiv
 1428 011e 0246     		mov	r2, r0
 1429 0120 0B46     		mov	r3, r1
 1430 0122 1046     		mov	r0, r2
 1431 0124 1946     		mov	r1, r3
 1432 0126 FFF7FEFF 		bl	__aeabi_d2iz
 1433 012a 0346     		mov	r3, r0
 1434 012c 9AB2     		uxth	r2, r3
 1435 012e 40F20003 		movw	r3, #:lower16:T_Y
 1436 0132 C0F20003 		movt	r3, #:upper16:T_Y
 1437 0136 1A80     		strh	r2, [r3, #0]	@ movhi
 516:../Main.c     **** 
 517:../Main.c     ****    BUF[4]=Single_Read(MPU6050_Addr,GYRO_ZOUT_L);
 1438              		.loc 1 517 0
 1439 0138 4FF0D000 		mov	r0, #208
 1440 013c 4FF04801 		mov	r1, #72
 1441 0140 FFF7FEFF 		bl	Single_Read
 1442 0144 0346     		mov	r3, r0
 1443 0146 1A46     		mov	r2, r3
 1444 0148 40F20003 		movw	r3, #:lower16:BUF
 1445 014c C0F20003 		movt	r3, #:upper16:BUF
 1446 0150 1A71     		strb	r2, [r3, #4]
 518:../Main.c     **** 
 519:../Main.c     ****    BUF[5]=Single_Read(MPU6050_Addr,GYRO_ZOUT_H);
 1447              		.loc 1 519 0
 1448 0152 4FF0D000 		mov	r0, #208
 1449 0156 4FF04701 		mov	r1, #71
 1450 015a FFF7FEFF 		bl	Single_Read
 1451 015e 0346     		mov	r3, r0
 1452 0160 1A46     		mov	r2, r3
 1453 0162 40F20003 		movw	r3, #:lower16:BUF
 1454 0166 C0F20003 		movt	r3, #:upper16:BUF
 1455 016a 5A71     		strb	r2, [r3, #5]
 520:../Main.c     **** 
 521:../Main.c     ****    T_Z=	(BUF[5]<<8)|BUF[4];
 1456              		.loc 1 521 0
 1457 016c 40F20003 		movw	r3, #:lower16:BUF
 1458 0170 C0F20003 		movt	r3, #:upper16:BUF
 1459 0174 5B79     		ldrb	r3, [r3, #5]	@ zero_extendqisi2
 1460 0176 4FEA0323 		lsl	r3, r3, #8
 1461 017a 9AB2     		uxth	r2, r3
 1462 017c 40F20003 		movw	r3, #:lower16:BUF
 1463 0180 C0F20003 		movt	r3, #:upper16:BUF
 1464 0184 1B79     		ldrb	r3, [r3, #4]	@ zero_extendqisi2
 1465 0186 1343     		orrs	r3, r3, r2
 1466 0188 9AB2     		uxth	r2, r3
 1467 018a 40F20003 		movw	r3, #:lower16:T_Z
 1468 018e C0F20003 		movt	r3, #:upper16:T_Z
 1469 0192 1A80     		strh	r2, [r3, #0]	@ movhi
 522:../Main.c     **** 
 523:../Main.c     ****    T_Z/=16.4; 					       //è¯»å–è®¡ç®—Zè½´æ•°æ®
 1470              		.loc 1 523 0
 1471 0194 40F20003 		movw	r3, #:lower16:T_Z
 1472 0198 C0F20003 		movt	r3, #:upper16:T_Z
 1473 019c 1B88     		ldrh	r3, [r3, #0]
 1474 019e 1BB2     		sxth	r3, r3
 1475 01a0 1846     		mov	r0, r3
 1476 01a2 FFF7FEFF 		bl	__aeabi_i2d
 1477 01a6 0246     		mov	r2, r0
 1478 01a8 0B46     		mov	r3, r1
 1479 01aa 1046     		mov	r0, r2
 1480 01ac 1946     		mov	r1, r3
 1481 01ae 0AA3     		adr	r3, .L47
 1482 01b0 D3E90023 		ldrd	r2, [r3]
 1483 01b4 FFF7FEFF 		bl	__aeabi_ddiv
 1484 01b8 0246     		mov	r2, r0
 1485 01ba 0B46     		mov	r3, r1
 1486 01bc 1046     		mov	r0, r2
 1487 01be 1946     		mov	r1, r3
 1488 01c0 FFF7FEFF 		bl	__aeabi_d2iz
 1489 01c4 0346     		mov	r3, r0
 1490 01c6 9AB2     		uxth	r2, r3
 1491 01c8 40F20003 		movw	r3, #:lower16:T_Z
 1492 01cc C0F20003 		movt	r3, #:upper16:T_Z
 1493 01d0 1A80     		strh	r2, [r3, #0]	@ movhi
 524:../Main.c     **** 
 525:../Main.c     **** 
 526:../Main.c     **** 
 527:../Main.c     ****   // BUF[6]=Single_Read(MPU6050_Addr,TEMP_OUT_L);
 528:../Main.c     **** 
 529:../Main.c     ****   // BUF[7]=Single_Read(MPU6050_Addr,TEMP_OUT_H);
 530:../Main.c     **** 
 531:../Main.c     ****   // T_T=(BUF[7]<<8)|BUF[6];
 532:../Main.c     **** 
 533:../Main.c     ****   // T_T = 35+ ((double) (T_T + 13200)) / 280;// è¯»å–è®¡ç®—å‡ºæ¸©åº¦
 534:../Main.c     **** 
 535:../Main.c     **** }
 1494              		.loc 1 535 0
 1495 01d2 80BD     		pop	{r7, pc}
 1496              	.L48:
 1497 01d4 AFF30080 		.align	3
 1498              	.L47:
 1499 01d8 66666666 		.word	1717986918
 1500 01dc 66663040 		.word	1076913766
 1501              		.cfi_endproc
 1502              	.LFE127:
 1504              		.section	.text.myputchar,"ax",%progbits
 1505              		.align	2
 1506              		.global	myputchar
 1507              		.thumb
 1508              		.thumb_func
 1510              	myputchar:
 1511              	.LFB128:
 536:../Main.c     **** 
 537:../Main.c     **** void myputchar(uchar axis)
 538:../Main.c     **** {
 1512              		.loc 1 538 0
 1513              		.cfi_startproc
 1514              		@ args = 0, pretend = 0, frame = 8
 1515              		@ frame_needed = 1, uses_anonymous_args = 0
 1516 0000 80B5     		push	{r7, lr}
 1517              	.LCFI40:
 1518              		.cfi_def_cfa_offset 8
 1519              		.cfi_offset 7, -8
 1520              		.cfi_offset 14, -4
 1521 0002 82B0     		sub	sp, sp, #8
 1522              	.LCFI41:
 1523              		.cfi_def_cfa_offset 16
 1524 0004 00AF     		add	r7, sp, #0
 1525              	.LCFI42:
 1526              		.cfi_def_cfa_register 7
 1527 0006 0346     		mov	r3, r0
 1528 0008 FB71     		strb	r3, [r7, #7]
 539:../Main.c     **** 	USART1_SendData(&axis);
 1529              		.loc 1 539 0
 1530 000a 07F10703 		add	r3, r7, #7
 1531 000e 1846     		mov	r0, r3
 1532 0010 FFF7FEFF 		bl	USART1_SendData
 540:../Main.c     **** }
 1533              		.loc 1 540 0
 1534 0014 07F10807 		add	r7, r7, #8
 1535 0018 BD46     		mov	sp, r7
 1536 001a 80BD     		pop	{r7, pc}
 1537              		.cfi_endproc
 1538              	.LFE128:
 1540              		.section	.text.Send_data,"ax",%progbits
 1541              		.align	2
 1542              		.global	Send_data
 1543              		.thumb
 1544              		.thumb_func
 1546              	Send_data:
 1547              	.LFB129:
 541:../Main.c     ****  //********ä¸²å£å‘é€æ•°æ®***************************************
 542:../Main.c     **** 
 543:../Main.c     ****  void Send_data(uchar axis)
 544:../Main.c     **** 
 545:../Main.c     ****  {uchar i;
 1548              		.loc 1 545 0
 1549              		.cfi_startproc
 1550              		@ args = 0, pretend = 0, frame = 16
 1551              		@ frame_needed = 1, uses_anonymous_args = 0
 1552 0000 80B5     		push	{r7, lr}
 1553              	.LCFI43:
 1554              		.cfi_def_cfa_offset 8
 1555              		.cfi_offset 7, -8
 1556              		.cfi_offset 14, -4
 1557 0002 84B0     		sub	sp, sp, #16
 1558              	.LCFI44:
 1559              		.cfi_def_cfa_offset 24
 1560 0004 00AF     		add	r7, sp, #0
 1561              	.LCFI45:
 1562              		.cfi_def_cfa_register 7
 1563 0006 0346     		mov	r3, r0
 1564 0008 FB71     		strb	r3, [r7, #7]
 546:../Main.c     **** 
 547:../Main.c     ****   USART1_SendData(&axis);
 1565              		.loc 1 547 0
 1566 000a 07F10703 		add	r3, r7, #7
 1567 000e 1846     		mov	r0, r3
 1568 0010 FFF7FEFF 		bl	USART1_SendData
 548:../Main.c     ****   i = ':';
 1569              		.loc 1 548 0
 1570 0014 4FF03A03 		mov	r3, #58
 1571 0018 FB73     		strb	r3, [r7, #15]
 549:../Main.c     ****   //USART1_SendData('\:');
 550:../Main.c     ****   USART1_SendData(&i);
 1572              		.loc 1 550 0
 1573 001a 07F10F03 		add	r3, r7, #15
 1574 001e 1846     		mov	r0, r3
 1575 0020 FFF7FEFF 		bl	USART1_SendData
 551:../Main.c     ****   for(i=0;i<4;i++)USART1_SendData(&TX_DATA[i]);
 1576              		.loc 1 551 0
 1577 0024 4FF00003 		mov	r3, #0
 1578 0028 FB73     		strb	r3, [r7, #15]
 1579 002a 0EE0     		b	.L51
 1580              	.L52:
 1581              		.loc 1 551 0 is_stmt 0 discriminator 2
 1582 002c FB7B     		ldrb	r3, [r7, #15]	@ zero_extendqisi2
 1583 002e 1A46     		mov	r2, r3
 1584 0030 40F20003 		movw	r3, #:lower16:TX_DATA
 1585 0034 C0F20003 		movt	r3, #:upper16:TX_DATA
 1586 0038 D318     		adds	r3, r2, r3
 1587 003a 1846     		mov	r0, r3
 1588 003c FFF7FEFF 		bl	USART1_SendData
 1589 0040 FB7B     		ldrb	r3, [r7, #15]	@ zero_extendqisi2
 1590 0042 03F10103 		add	r3, r3, #1
 1591 0046 DBB2     		uxtb	r3, r3
 1592 0048 FB73     		strb	r3, [r7, #15]
 1593              	.L51:
 1594              		.loc 1 551 0 discriminator 1
 1595 004a FB7B     		ldrb	r3, [r7, #15]	@ zero_extendqisi2
 1596 004c 032B     		cmp	r3, #3
 1597 004e EDD9     		bls	.L52
 552:../Main.c     ****   i = ' ';
 1598              		.loc 1 552 0 is_stmt 1
 1599 0050 4FF02003 		mov	r3, #32
 1600 0054 FB73     		strb	r3, [r7, #15]
 553:../Main.c     ****  // USART1_SendData('\ ');
 554:../Main.c     ****   USART1_SendData(&i);
 1601              		.loc 1 554 0
 1602 0056 07F10F03 		add	r3, r7, #15
 1603 005a 1846     		mov	r0, r3
 1604 005c FFF7FEFF 		bl	USART1_SendData
 555:../Main.c     ****  // USART1_SendData('\ ');
 556:../Main.c     ****   USART1_SendData(&i);
 1605              		.loc 1 556 0
 1606 0060 07F10F03 		add	r3, r7, #15
 1607 0064 1846     		mov	r0, r3
 1608 0066 FFF7FEFF 		bl	USART1_SendData
 557:../Main.c     ****  }
 1609              		.loc 1 557 0
 1610 006a 07F11007 		add	r7, r7, #16
 1611 006e BD46     		mov	sp, r7
 1612 0070 80BD     		pop	{r7, pc}
 1613              		.cfi_endproc
 1614              	.LFE129:
 1616 0072 00BF     		.section	.text.i2cRead,"ax",%progbits
 1617              		.align	2
 1618              		.global	i2cRead
 1619              		.thumb
 1620              		.thumb_func
 1622              	i2cRead:
 1623              	.LFB130:
 558:../Main.c     **** 
 559:../Main.c     **** 
 560:../Main.c     **** 
 561:../Main.c     **** #endif
 562:../Main.c     **** 
 563:../Main.c     **** #ifdef stm32
 564:../Main.c     **** 
 565:../Main.c     **** #define SCL_H         GPIOB->BSRR = GPIO_Pin_8 /* GPIO_SetBits(GPIOB , GPIO_Pin_10)   */
 566:../Main.c     **** #define SCL_L         GPIOB->BRR  = GPIO_Pin_8 /* GPIO_ResetBits(GPIOB , GPIO_Pin_10) */
 567:../Main.c     **** 
 568:../Main.c     **** #define SDA_H         GPIOB->BSRR = GPIO_Pin_9 /* GPIO_SetBits(GPIOB , GPIO_Pin_11)   */
 569:../Main.c     **** #define SDA_L         GPIOB->BRR  = GPIO_Pin_9 /* GPIO_ResetBits(GPIOB , GPIO_Pin_11) */
 570:../Main.c     **** 
 571:../Main.c     **** #define SCL_read      GPIOB->IDR  & GPIO_Pin_8 /* GPIO_ReadInputDataBit(GPIOB , GPIO_Pin_10) */
 572:../Main.c     **** #define SDA_read      GPIOB->IDR  & GPIO_Pin_9 /* GPIO_ReadInputDataBit(GPIOB , GPIO_Pin_11) */
 573:../Main.c     **** 
 574:../Main.c     **** 
 575:../Main.c     **** static void I2C_delay(void)
 576:../Main.c     **** {
 577:../Main.c     ****     volatile int i = 7;
 578:../Main.c     ****     while (i)
 579:../Main.c     ****         i--;
 580:../Main.c     **** }
 581:../Main.c     **** 
 582:../Main.c     **** static bool I2C_Start(void)
 583:../Main.c     **** {
 584:../Main.c     ****     SDA_H;
 585:../Main.c     ****     SCL_H;
 586:../Main.c     ****     I2C_delay();
 587:../Main.c     ****     if (!SDA_read)
 588:../Main.c     ****         return FALSE;
 589:../Main.c     ****     SDA_L;
 590:../Main.c     ****     I2C_delay();
 591:../Main.c     ****     if (SDA_read)
 592:../Main.c     ****         return FALSE;
 593:../Main.c     ****     SDA_L;
 594:../Main.c     ****     I2C_delay();
 595:../Main.c     ****     return TRUE;
 596:../Main.c     **** }
 597:../Main.c     **** 
 598:../Main.c     **** static void I2C_Stop(void)
 599:../Main.c     **** {
 600:../Main.c     ****     SCL_L;
 601:../Main.c     ****     I2C_delay();
 602:../Main.c     ****     SDA_L;
 603:../Main.c     ****     I2C_delay();
 604:../Main.c     ****     SCL_H;
 605:../Main.c     ****     I2C_delay();
 606:../Main.c     ****     SDA_H;
 607:../Main.c     ****     I2C_delay();
 608:../Main.c     **** }
 609:../Main.c     **** 
 610:../Main.c     **** static void I2C_Ack(void)
 611:../Main.c     **** {
 612:../Main.c     ****     SCL_L;
 613:../Main.c     ****     I2C_delay();
 614:../Main.c     ****     SDA_L;
 615:../Main.c     ****     I2C_delay();
 616:../Main.c     ****     SCL_H;
 617:../Main.c     ****     I2C_delay();
 618:../Main.c     ****     SCL_L;
 619:../Main.c     ****     I2C_delay();
 620:../Main.c     **** }
 621:../Main.c     **** 
 622:../Main.c     **** static void I2C_NoAck(void)
 623:../Main.c     **** {
 624:../Main.c     ****     SCL_L;
 625:../Main.c     ****     I2C_delay();
 626:../Main.c     ****     SDA_H;
 627:../Main.c     ****     I2C_delay();
 628:../Main.c     ****     SCL_H;
 629:../Main.c     ****     I2C_delay();
 630:../Main.c     ****     SCL_L;
 631:../Main.c     ****     I2C_delay();
 632:../Main.c     **** }
 633:../Main.c     **** 
 634:../Main.c     **** static bool I2C_WaitAck(void)
 635:../Main.c     **** {
 636:../Main.c     ****     SCL_L;
 637:../Main.c     ****     I2C_delay();
 638:../Main.c     ****     SDA_H;
 639:../Main.c     ****     I2C_delay();
 640:../Main.c     ****     SCL_H;
 641:../Main.c     ****     I2C_delay();
 642:../Main.c     ****     if (SDA_read) {
 643:../Main.c     ****         SCL_L;
 644:../Main.c     ****         return FALSE;
 645:../Main.c     ****     }
 646:../Main.c     ****     SCL_L;
 647:../Main.c     ****     return TRUE;
 648:../Main.c     **** }
 649:../Main.c     **** 
 650:../Main.c     **** static void I2C_SendByte(uint8_t byte)
 651:../Main.c     **** {
 652:../Main.c     ****     uint8_t i = 8;
 653:../Main.c     ****     while (i--) {
 654:../Main.c     ****         SCL_L;
 655:../Main.c     ****         I2C_delay();
 656:../Main.c     ****         if (byte & 0x80)
 657:../Main.c     ****             SDA_H;
 658:../Main.c     ****         else
 659:../Main.c     ****             SDA_L;
 660:../Main.c     ****         byte <<= 1;
 661:../Main.c     ****         I2C_delay();
 662:../Main.c     ****         SCL_H;
 663:../Main.c     ****         I2C_delay();
 664:../Main.c     ****     }
 665:../Main.c     ****     SCL_L;
 666:../Main.c     **** }
 667:../Main.c     **** 
 668:../Main.c     **** static uint8_t I2C_ReceiveByte(void)
 669:../Main.c     **** {
 670:../Main.c     ****     uint8_t i = 8;
 671:../Main.c     ****     uint8_t byte = 0;
 672:../Main.c     **** 
 673:../Main.c     ****     SDA_H;
 674:../Main.c     ****     while (i--) {
 675:../Main.c     ****         byte <<= 1;
 676:../Main.c     ****         SCL_L;
 677:../Main.c     ****         I2C_delay();
 678:../Main.c     ****         SCL_H;
 679:../Main.c     ****         I2C_delay();
 680:../Main.c     ****         if (SDA_read) {
 681:../Main.c     ****             byte |= 0x01;
 682:../Main.c     ****         }
 683:../Main.c     ****     }
 684:../Main.c     ****     SCL_L;
 685:../Main.c     ****     return byte;
 686:../Main.c     **** }
 687:../Main.c     **** 
 688:../Main.c     **** void i2cInit(void)
 689:../Main.c     **** {
 690:../Main.c     ****   GPIO_InitTypeDef gpio;
 691:../Main.c     **** 	RCC_APB2PeriphClockCmd(RCC_APB2Periph_GPIOB , ENABLE);
 692:../Main.c     ****     gpio.GPIO_Pin = GPIO_Pin_8 | GPIO_Pin_9;
 693:../Main.c     ****     gpio.GPIO_Speed = GPIO_Speed_2MHz;
 694:../Main.c     ****     gpio.GPIO_Mode = GPIO_Mode_Out_OD;
 695:../Main.c     ****     GPIO_Init(GPIOB, &gpio);
 696:../Main.c     **** 	/*
 697:../Main.c     ****     I2C_InitTypeDef  I2C_InitStructure;
 698:../Main.c     ****     GPIO_InitTypeDef  GPIO_InitStructure;
 699:../Main.c     **** 
 700:../Main.c     ****     RCC_APB1PeriphClockCmd(RCC_APB1Periph_I2C1,ENABLE);
 701:../Main.c     ****     RCC_APB2PeriphClockCmd(RCC_APB2Periph_AFIO,ENABLE);
 702:../Main.c     **** 
 703:../Main.c     ****     //PB8,9 SCL and SDA
 704:../Main.c     ****     GPIO_InitStructure.GPIO_Pin =  GPIO_Pin_8 | GPIO_Pin_9;
 705:../Main.c     ****     GPIO_InitStructure.GPIO_Speed = GPIO_Speed_50MHz;
 706:../Main.c     ****     GPIO_InitStructure.GPIO_Mode = GPIO_Mode_AF_OD;
 707:../Main.c     ****     GPIO_Init(GPIOB, &GPIO_InitStructure);
 708:../Main.c     **** 
 709:../Main.c     ****     // I2C1_SCL on PB08, I2C1_SDA on PB09
 710:../Main.c     ****     GPIO_PinRemapConfig(GPIO_Remap_I2C1, ENABLE);   //
 711:../Main.c     **** 
 712:../Main.c     ****     //I2C_DeInit(I2C1);
 713:../Main.c     ****     I2C_InitStructure.I2C_Mode = I2C_Mode_I2C;
 714:../Main.c     ****     //I2C_InitStructure.I2C_DutyCycle = I2C_DutyCycle_2;
 715:../Main.c     ****     //I2C_InitStructure.I2C_OwnAddress1 = 0x30;
 716:../Main.c     ****     I2C_InitStructure.I2C_Ack = I2C_Ack_Enable;
 717:../Main.c     ****     I2C_InitStructure.I2C_AcknowledgedAddress = I2C_AcknowledgedAddress_7bit;
 718:../Main.c     ****     I2C_InitStructure.I2C_ClockSpeed = 100000;//100K
 719:../Main.c     **** 
 720:../Main.c     ****     I2C_Cmd(I2C1, ENABLE);
 721:../Main.c     ****     I2C_Init(I2C1, &I2C_InitStructure);
 722:../Main.c     ****     //
 723:../Main.c     ****     I2C_AcknowledgeConfig(I2C1, ENABLE);   */
 724:../Main.c     **** }
 725:../Main.c     **** 
 726:../Main.c     **** bool i2cWriteBuffer(uint8_t addr, uint8_t reg, uint8_t len, uint8_t * data)
 727:../Main.c     **** {
 728:../Main.c     ****     int i;
 729:../Main.c     ****     if (!I2C_Start())
 730:../Main.c     ****         return FALSE;
 731:../Main.c     ****     I2C_SendByte(addr << 1 | I2C_Direction_Transmitter);//I2C_Direction_Transmitter:Ğ´
 732:../Main.c     ****     if (!I2C_WaitAck()) {
 733:../Main.c     ****         I2C_Stop();
 734:../Main.c     ****         return FALSE;
 735:../Main.c     ****     }
 736:../Main.c     ****     I2C_SendByte(reg);
 737:../Main.c     ****     I2C_WaitAck();
 738:../Main.c     ****     for (i = 0; i < len; i++) {
 739:../Main.c     ****         I2C_SendByte(data[i]);
 740:../Main.c     ****         if (!I2C_WaitAck()) {
 741:../Main.c     ****             I2C_Stop();
 742:../Main.c     ****             return FALSE;
 743:../Main.c     ****         }
 744:../Main.c     ****     }
 745:../Main.c     ****     I2C_Stop();
 746:../Main.c     ****     return TRUE;
 747:../Main.c     **** }
 748:../Main.c     **** #endif
 749:../Main.c     **** /////////////////////////////////////////////////////////////////////////////////
 750:../Main.c     **** #ifdef XMC_Soft_IIC
 751:../Main.c     **** bool i2cRead(uint8_t addr, uint8_t reg, uint8_t len, uint8_t *buf)
 752:../Main.c     **** {
 1624              		.loc 1 752 0
 1625              		.cfi_startproc
 1626              		@ args = 0, pretend = 0, frame = 8
 1627              		@ frame_needed = 1, uses_anonymous_args = 0
 1628 0000 80B5     		push	{r7, lr}
 1629              	.LCFI46:
 1630              		.cfi_def_cfa_offset 8
 1631              		.cfi_offset 7, -8
 1632              		.cfi_offset 14, -4
 1633 0002 82B0     		sub	sp, sp, #8
 1634              	.LCFI47:
 1635              		.cfi_def_cfa_offset 16
 1636 0004 00AF     		add	r7, sp, #0
 1637              	.LCFI48:
 1638              		.cfi_def_cfa_register 7
 1639 0006 3B60     		str	r3, [r7, #0]
 1640 0008 0346     		mov	r3, r0
 1641 000a FB71     		strb	r3, [r7, #7]
 1642 000c 0B46     		mov	r3, r1
 1643 000e BB71     		strb	r3, [r7, #6]
 1644 0010 1346     		mov	r3, r2
 1645 0012 7B71     		strb	r3, [r7, #5]
 753:../Main.c     ****     if (!I2C_Start());
 1646              		.loc 1 753 0
 1647 0014 FFF7FEFF 		bl	I2C_Start
 754:../Main.c     ****         return FALSE;
 1648              		.loc 1 754 0
 1649 0018 4FF00003 		mov	r3, #0
 755:../Main.c     ****     I2C_SendByte(addr << 1 | I2C_Direction_Transmitter);
 756:../Main.c     ****     if (!I2C_WaitAck()) {
 757:../Main.c     ****         I2C_Stop();
 758:../Main.c     ****          return FALSE;
 759:../Main.c     ****     }
 760:../Main.c     ****     I2C_SendByte(reg);
 761:../Main.c     ****     I2C_WaitAck();
 762:../Main.c     ****     I2C_Start();
 763:../Main.c     ****     I2C_SendByte(addr << 1 | I2C_Direction_Receiver);
 764:../Main.c     ****     I2C_WaitAck();
 765:../Main.c     ****     while (len) {
 766:../Main.c     ****         *buf = I2C_ReceiveByte();
 767:../Main.c     ****         if (len == 1)
 768:../Main.c     ****             I2C_NoAck();
 769:../Main.c     ****         else
 770:../Main.c     ****             I2C_Ack();
 771:../Main.c     ****         buf++;
 772:../Main.c     ****         len--;
 773:../Main.c     ****     }
 774:../Main.c     ****     I2C_Stop();
 775:../Main.c     ****     return TRUE;
 776:../Main.c     **** }
 1650              		.loc 1 776 0
 1651 001c 1846     		mov	r0, r3
 1652 001e 07F10807 		add	r7, r7, #8
 1653 0022 BD46     		mov	sp, r7
 1654 0024 80BD     		pop	{r7, pc}
 1655              		.cfi_endproc
 1656              	.LFE130:
 1658 0026 00BF     		.section	.text.i2cwrite,"ax",%progbits
 1659              		.align	2
 1660              		.global	i2cwrite
 1661              		.thumb
 1662              		.thumb_func
 1664              	i2cwrite:
 1665              	.LFB131:
 777:../Main.c     **** int8_t i2cwrite(uint8_t addr, uint8_t reg, uint8_t len, uint8_t * data)
 778:../Main.c     **** {
 1666              		.loc 1 778 0
 1667              		.cfi_startproc
 1668              		@ args = 0, pretend = 0, frame = 8
 1669              		@ frame_needed = 1, uses_anonymous_args = 0
 1670 0000 80B5     		push	{r7, lr}
 1671              	.LCFI49:
 1672              		.cfi_def_cfa_offset 8
 1673              		.cfi_offset 7, -8
 1674              		.cfi_offset 14, -4
 1675 0002 82B0     		sub	sp, sp, #8
 1676              	.LCFI50:
 1677              		.cfi_def_cfa_offset 16
 1678 0004 00AF     		add	r7, sp, #0
 1679              	.LCFI51:
 1680              		.cfi_def_cfa_register 7
 1681 0006 3B60     		str	r3, [r7, #0]
 1682 0008 0346     		mov	r3, r0
 1683 000a FB71     		strb	r3, [r7, #7]
 1684 000c 0B46     		mov	r3, r1
 1685 000e BB71     		strb	r3, [r7, #6]
 1686 0010 1346     		mov	r3, r2
 1687 0012 7B71     		strb	r3, [r7, #5]
 779:../Main.c     **** 	 if(i2cWriteBuffer(addr,reg,len,data))
 1688              		.loc 1 779 0
 1689 0014 F979     		ldrb	r1, [r7, #7]	@ zero_extendqisi2
 1690 0016 BA79     		ldrb	r2, [r7, #6]	@ zero_extendqisi2
 1691 0018 7B79     		ldrb	r3, [r7, #5]	@ zero_extendqisi2
 1692 001a 0846     		mov	r0, r1
 1693 001c 1146     		mov	r1, r2
 1694 001e 1A46     		mov	r2, r3
 1695 0020 3B68     		ldr	r3, [r7, #0]
 1696 0022 FFF7FEFF 		bl	i2cWriteBuffer
 1697 0026 0346     		mov	r3, r0
 1698 0028 002B     		cmp	r3, #0
 1699 002a 02D0     		beq	.L56
 780:../Main.c     **** 	/*if(XMCi2cWriteBuffer(addr,reg,len,data))*/
 781:../Main.c     **** 	{
 782:../Main.c     **** 		return TRUE;
 1700              		.loc 1 782 0
 1701 002c 4FF00103 		mov	r3, #1
 1702 0030 01E0     		b	.L57
 1703              	.L56:
 783:../Main.c     **** 	}
 784:../Main.c     **** 	else
 785:../Main.c     **** 	{
 786:../Main.c     **** 		return FALSE;
 1704              		.loc 1 786 0
 1705 0032 4FF00003 		mov	r3, #0
 1706              	.L57:
 1707 0036 5BB2     		sxtb	r3, r3
 787:../Main.c     **** 	}
 788:../Main.c     **** 	//return FALSE;
 789:../Main.c     **** }
 1708              		.loc 1 789 0
 1709 0038 1846     		mov	r0, r3
 1710 003a 07F10807 		add	r7, r7, #8
 1711 003e BD46     		mov	sp, r7
 1712 0040 80BD     		pop	{r7, pc}
 1713              		.cfi_endproc
 1714              	.LFE131:
 1716 0042 00BF     		.section	.text.i2cread,"ax",%progbits
 1717              		.align	2
 1718              		.global	i2cread
 1719              		.thumb
 1720              		.thumb_func
 1722              	i2cread:
 1723              	.LFB132:
 790:../Main.c     **** int8_t i2cread(uint8_t addr, uint8_t reg, uint8_t len, uint8_t *buf)
 791:../Main.c     **** {
 1724              		.loc 1 791 0
 1725              		.cfi_startproc
 1726              		@ args = 0, pretend = 0, frame = 8
 1727              		@ frame_needed = 1, uses_anonymous_args = 0
 1728 0000 80B5     		push	{r7, lr}
 1729              	.LCFI52:
 1730              		.cfi_def_cfa_offset 8
 1731              		.cfi_offset 7, -8
 1732              		.cfi_offset 14, -4
 1733 0002 82B0     		sub	sp, sp, #8
 1734              	.LCFI53:
 1735              		.cfi_def_cfa_offset 16
 1736 0004 00AF     		add	r7, sp, #0
 1737              	.LCFI54:
 1738              		.cfi_def_cfa_register 7
 1739 0006 3B60     		str	r3, [r7, #0]
 1740 0008 0346     		mov	r3, r0
 1741 000a FB71     		strb	r3, [r7, #7]
 1742 000c 0B46     		mov	r3, r1
 1743 000e BB71     		strb	r3, [r7, #6]
 1744 0010 1346     		mov	r3, r2
 1745 0012 7B71     		strb	r3, [r7, #5]
 792:../Main.c     **** 	 if(i2cRead(addr,reg,len,buf))
 1746              		.loc 1 792 0
 1747 0014 F979     		ldrb	r1, [r7, #7]	@ zero_extendqisi2
 1748 0016 BA79     		ldrb	r2, [r7, #6]	@ zero_extendqisi2
 1749 0018 7B79     		ldrb	r3, [r7, #5]	@ zero_extendqisi2
 1750 001a 0846     		mov	r0, r1
 1751 001c 1146     		mov	r1, r2
 1752 001e 1A46     		mov	r2, r3
 1753 0020 3B68     		ldr	r3, [r7, #0]
 1754 0022 FFF7FEFF 		bl	i2cRead
 1755 0026 0346     		mov	r3, r0
 1756 0028 002B     		cmp	r3, #0
 1757 002a 02D0     		beq	.L59
 793:../Main.c     **** 	/*if(XMCi2cRead(addr,reg,len,buf))*/
 794:../Main.c     **** 	{
 795:../Main.c     **** 		return TRUE;
 1758              		.loc 1 795 0
 1759 002c 4FF00103 		mov	r3, #1
 1760 0030 01E0     		b	.L60
 1761              	.L59:
 796:../Main.c     **** 	}
 797:../Main.c     **** 	else
 798:../Main.c     **** 	{
 799:../Main.c     **** 		return FALSE;
 1762              		.loc 1 799 0
 1763 0032 4FF00003 		mov	r3, #0
 1764              	.L60:
 1765 0036 5BB2     		sxtb	r3, r3
 800:../Main.c     **** 	}
 801:../Main.c     **** 	//return FALSE;
 802:../Main.c     **** }
 1766              		.loc 1 802 0
 1767 0038 1846     		mov	r0, r3
 1768 003a 07F10807 		add	r7, r7, #8
 1769 003e BD46     		mov	sp, r7
 1770 0040 80BD     		pop	{r7, pc}
 1771              		.cfi_endproc
 1772              	.LFE132:
 1774 0042 00BF     		.section	.text.i2cGetErrorCounter,"ax",%progbits
 1775              		.align	2
 1776              		.global	i2cGetErrorCounter
 1777              		.thumb
 1778              		.thumb_func
 1780              	i2cGetErrorCounter:
 1781              	.LFB133:
 803:../Main.c     **** #else
 804:../Main.c     **** int8_t i2cwrite(uint8_t addr, uint8_t reg, uint8_t len, uint8_t * data)
 805:../Main.c     **** {
 806:../Main.c     **** 	/* if(i2cWriteBuffer(addr,reg,len,data)) */
 807:../Main.c     **** 	if(XMCi2cWriteBuffer(addr,reg,len,data))
 808:../Main.c     **** 	{
 809:../Main.c     **** 		return TRUE;
 810:../Main.c     **** 	}
 811:../Main.c     **** 	else
 812:../Main.c     **** 	{
 813:../Main.c     **** 		return FALSE;
 814:../Main.c     **** 	}
 815:../Main.c     **** 	//return FALSE;
 816:../Main.c     **** }
 817:../Main.c     **** int8_t i2cread(uint8_t addr, uint8_t reg, uint8_t len, uint8_t *buf)
 818:../Main.c     **** {
 819:../Main.c     **** 	/* if(i2cRead(addr,reg,len,buf)) */
 820:../Main.c     **** 	if(XMCi2cRead(addr,reg,len,buf))
 821:../Main.c     **** 	{
 822:../Main.c     **** 		return TRUE;
 823:../Main.c     **** 	}
 824:../Main.c     **** 	else
 825:../Main.c     **** 	{
 826:../Main.c     **** 		return FALSE;
 827:../Main.c     **** 	}
 828:../Main.c     **** 	//return FALSE;
 829:../Main.c     **** }
 830:../Main.c     **** #endif
 831:../Main.c     **** #ifdef stm32
 832:../Main.c     **** //////////////////////////////////////////////////////////////////////////////////
 833:../Main.c     **** bool i2cWrite(uint8_t addr, uint8_t reg, uint8_t data)
 834:../Main.c     **** {
 835:../Main.c     ****     if (!I2C_Start())
 836:../Main.c     ****         return FALSE;
 837:../Main.c     ****     I2C_SendByte(addr << 1 | I2C_Direction_Transmitter);
 838:../Main.c     ****     if (!I2C_WaitAck()) {
 839:../Main.c     ****         I2C_Stop();
 840:../Main.c     ****         return FALSE;
 841:../Main.c     ****     }
 842:../Main.c     ****     I2C_SendByte(reg);
 843:../Main.c     ****     I2C_WaitAck();
 844:../Main.c     ****     I2C_SendByte(data);
 845:../Main.c     ****     I2C_WaitAck();
 846:../Main.c     ****     I2C_Stop();
 847:../Main.c     ****     return TRUE;
 848:../Main.c     **** }
 849:../Main.c     **** 
 850:../Main.c     **** bool i2cRead(uint8_t addr, uint8_t reg, uint8_t len, uint8_t *buf)
 851:../Main.c     **** {
 852:../Main.c     ****     if (!I2C_Start())
 853:../Main.c     ****         return FALSE;
 854:../Main.c     ****     I2C_SendByte(addr << 1 | I2C_Direction_Transmitter);
 855:../Main.c     ****     if (!I2C_WaitAck()) {
 856:../Main.c     ****         I2C_Stop();
 857:../Main.c     ****         return FALSE;
 858:../Main.c     ****     }
 859:../Main.c     ****     I2C_SendByte(reg);
 860:../Main.c     ****     I2C_WaitAck();
 861:../Main.c     ****     I2C_Start();
 862:../Main.c     ****     I2C_SendByte(addr << 1 | I2C_Direction_Receiver);
 863:../Main.c     ****     I2C_WaitAck();
 864:../Main.c     ****     while (len) {
 865:../Main.c     ****         *buf = I2C_ReceiveByte();
 866:../Main.c     ****         if (len == 1)
 867:../Main.c     ****             I2C_NoAck();
 868:../Main.c     ****         else
 869:../Main.c     ****             I2C_Ack();
 870:../Main.c     ****         buf++;
 871:../Main.c     ****         len--;
 872:../Main.c     ****     }
 873:../Main.c     ****     I2C_Stop();
 874:../Main.c     ****     return TRUE;
 875:../Main.c     **** }
 876:../Main.c     **** #endif
 877:../Main.c     **** 
 878:../Main.c     **** uint16_t i2cGetErrorCounter(void)
 879:../Main.c     **** {
 1782              		.loc 1 879 0
 1783              		.cfi_startproc
 1784              		@ args = 0, pretend = 0, frame = 0
 1785              		@ frame_needed = 1, uses_anonymous_args = 0
 1786              		@ link register save eliminated.
 1787 0000 80B4     		push	{r7}
 1788              	.LCFI55:
 1789              		.cfi_def_cfa_offset 4
 1790              		.cfi_offset 7, -4
 1791 0002 00AF     		add	r7, sp, #0
 1792              	.LCFI56:
 1793              		.cfi_def_cfa_register 7
 880:../Main.c     ****     // TODO maybe fix this, but since this is test code, doesn't matter.
 881:../Main.c     ****     return 0;
 1794              		.loc 1 881 0
 1795 0004 4FF00003 		mov	r3, #0
 882:../Main.c     **** }
 1796              		.loc 1 882 0
 1797 0008 1846     		mov	r0, r3
 1798 000a BD46     		mov	sp, r7
 1799 000c 80BC     		pop	{r7}
 1800 000e 7047     		bx	lr
 1801              		.cfi_endproc
 1802              	.LFE133:
 1804              		.section	.rodata
 1805              		.align	2
 1806              	.LC0:
 1807 0000 80       		.byte	-128
 1808 0001 45       		.byte	69
 1809 0002 0000     		.section	.text.main,"ax",%progbits
 1810              		.align	2
 1811              		.global	main
 1812              		.thumb
 1813              		.thumb_func
 1815              	main:
 1816              	.LFB134:
 883:../Main.c     **** 
 884:../Main.c     **** 
 885:../Main.c     **** void my_func_a(void* Temp);
 886:../Main.c     **** void millisecond_handler(void* Temp);
 887:../Main.c     **** 
 888:../Main.c     **** int main()
 889:../Main.c     **** {
 1817              		.loc 1 889 0
 1818              		.cfi_startproc
 1819              		@ args = 0, pretend = 0, frame = 8
 1820              		@ frame_needed = 1, uses_anonymous_args = 0
 1821 0000 80B5     		push	{r7, lr}
 1822              	.LCFI57:
 1823              		.cfi_def_cfa_offset 8
 1824              		.cfi_offset 7, -8
 1825              		.cfi_offset 14, -4
 1826 0002 82B0     		sub	sp, sp, #8
 1827              	.LCFI58:
 1828              		.cfi_def_cfa_offset 16
 1829 0004 00AF     		add	r7, sp, #0
 1830              	.LCFI59:
 1831              		.cfi_def_cfa_register 7
 890:../Main.c     **** 
 891:../Main.c     **** 	IO004_EnableOutputDriver(&IO004_Handle0,OUTPUT_OD_GP);
 1832              		.loc 1 891 0
 1833 0006 40F20000 		movw	r0, #:lower16:IO004_Handle0
 1834 000a C0F20000 		movt	r0, #:upper16:IO004_Handle0
 1835 000e 4FF01801 		mov	r1, #24
 1836 0012 FFF7FEFF 		bl	IO004_EnableOutputDriver
 892:../Main.c     **** 	IO004_EnableOutputDriver(&IO004_Handle1,OUTPUT_OD_GP);
 1837              		.loc 1 892 0
 1838 0016 40F20000 		movw	r0, #:lower16:IO004_Handle1
 1839 001a C0F20000 		movt	r0, #:upper16:IO004_Handle1
 1840 001e 4FF01801 		mov	r1, #24
 1841 0022 FFF7FEFF 		bl	IO004_EnableOutputDriver
 893:../Main.c     **** 	uint8_t test[2] = {0x80,0x45};
 1842              		.loc 1 893 0
 1843 0026 40F20003 		movw	r3, #:lower16:.LC0
 1844 002a C0F20003 		movt	r3, #:upper16:.LC0
 1845 002e 07F10402 		add	r2, r7, #4
 1846 0032 1B88     		ldrh	r3, [r3, #0]	@ unaligned
 1847 0034 1380     		strh	r3, [r2, #0]	@ unaligned
 894:../Main.c     **** 	DAVE_Init();
 1848              		.loc 1 894 0
 1849 0036 FFF7FEFF 		bl	DAVE_Init
 895:../Main.c     **** 	TimerId   = SYSTM001_CreateTimer(10,SYSTM001_PERIODIC,my_func_a,NULL);
 1850              		.loc 1 895 0
 1851 003a 4FF00A00 		mov	r0, #10
 1852 003e 4FF00101 		mov	r1, #1
 1853 0042 40F20002 		movw	r2, #:lower16:my_func_a
 1854 0046 C0F20002 		movt	r2, #:upper16:my_func_a
 1855 004a 4FF00003 		mov	r3, #0
 1856 004e FFF7FEFF 		bl	SYSTM001_CreateTimer
 1857 0052 0246     		mov	r2, r0
 1858 0054 40F20003 		movw	r3, #:lower16:TimerId
 1859 0058 C0F20003 		movt	r3, #:upper16:TimerId
 1860 005c 1A60     		str	r2, [r3, #0]
 896:../Main.c     **** 	TimerId_1 = SYSTM001_CreateTimer(1,SYSTM001_PERIODIC,millisecond_handler,NULL);
 1861              		.loc 1 896 0
 1862 005e 4FF00100 		mov	r0, #1
 1863 0062 4FF00101 		mov	r1, #1
 1864 0066 40F20002 		movw	r2, #:lower16:millisecond_handler
 1865 006a C0F20002 		movt	r2, #:upper16:millisecond_handler
 1866 006e 4FF00003 		mov	r3, #0
 1867 0072 FFF7FEFF 		bl	SYSTM001_CreateTimer
 1868 0076 0246     		mov	r2, r0
 1869 0078 40F20003 		movw	r3, #:lower16:TimerId_1
 1870 007c C0F20003 		movt	r3, #:upper16:TimerId_1
 1871 0080 1A60     		str	r2, [r3, #0]
 897:../Main.c     ****   //  delay10ms();
 898:../Main.c     **** 
 899:../Main.c     ****     TimerId_2_cnt  = 10;
 1872              		.loc 1 899 0
 1873 0082 40F20003 		movw	r3, #:lower16:TimerId_2_cnt
 1874 0086 C0F20003 		movt	r3, #:upper16:TimerId_2_cnt
 1875 008a 4FF00A02 		mov	r2, #10
 1876 008e 1A60     		str	r2, [r3, #0]
 900:../Main.c     ****     SYSTM001_StartTimer(TimerId_1);
 1877              		.loc 1 900 0
 1878 0090 40F20003 		movw	r3, #:lower16:TimerId_1
 1879 0094 C0F20003 		movt	r3, #:upper16:TimerId_1
 1880 0098 1B68     		ldr	r3, [r3, #0]
 1881 009a 1846     		mov	r0, r3
 1882 009c FFF7FEFF 		bl	SYSTM001_StartTimer
 901:../Main.c     ****     while(TimerId_2_cnt != 0)
 1883              		.loc 1 901 0
 1884 00a0 00BF     		nop
 1885              	.L64:
 1886              		.loc 1 901 0 is_stmt 0 discriminator 1
 1887 00a2 40F20003 		movw	r3, #:lower16:TimerId_2_cnt
 1888 00a6 C0F20003 		movt	r3, #:upper16:TimerId_2_cnt
 1889 00aa 1B68     		ldr	r3, [r3, #0]
 1890 00ac 002B     		cmp	r3, #0
 1891 00ae F8D1     		bne	.L64
 902:../Main.c     ****     {}
 903:../Main.c     ****     SYSTM001_StopTimer(TimerId_1);
 1892              		.loc 1 903 0 is_stmt 1
 1893 00b0 40F20003 		movw	r3, #:lower16:TimerId_1
 1894 00b4 C0F20003 		movt	r3, #:upper16:TimerId_1
 1895 00b8 1B68     		ldr	r3, [r3, #0]
 1896 00ba 1846     		mov	r0, r3
 1897 00bc FFF7FEFF 		bl	SYSTM001_StopTimer
 904:../Main.c     **** 
 905:../Main.c     ****     Init_MPU6050();
 1898              		.loc 1 905 0
 1899 00c0 FFF7FEFF 		bl	Init_MPU6050
 1900              	.L65:
 906:../Main.c     **** 	while(1)
 907:../Main.c     **** 	{
 908:../Main.c     **** //		I2C_Status = i2cwrite(0x68,0x6B,1,&test[0]);
 909:../Main.c     **** //		Value = SCL_read;
 910:../Main.c     **** //    /*	SCL_H;
 911:../Main.c     **** //		SCL_L;*/
 912:../Main.c     ****     READ_MPU6050();	         //è¯»å–MPU6050æ•°æ®
 1901              		.loc 1 912 0 discriminator 1
 1902 00c4 FFF7FEFF 		bl	READ_MPU6050
 913:../Main.c     **** 
 914:../Main.c     ****     DATA_printf(TX_DATA,T_X);//è½¬æ¢Xè½´æ•°æ®åˆ°æ•°ç»„
 1903              		.loc 1 914 0 discriminator 1
 1904 00c8 40F20003 		movw	r3, #:lower16:T_X
 1905 00cc C0F20003 		movt	r3, #:upper16:T_X
 1906 00d0 1B88     		ldrh	r3, [r3, #0]
 1907 00d2 1BB2     		sxth	r3, r3
 1908 00d4 40F20000 		movw	r0, #:lower16:TX_DATA
 1909 00d8 C0F20000 		movt	r0, #:upper16:TX_DATA
 1910 00dc 1946     		mov	r1, r3
 1911 00de FFF7FEFF 		bl	DATA_printf
 915:../Main.c     **** 
 916:../Main.c     **** 	Send_data('X');			 //å‘é€Xè½´æ•°
 1912              		.loc 1 916 0 discriminator 1
 1913 00e2 4FF05800 		mov	r0, #88
 1914 00e6 FFF7FEFF 		bl	Send_data
 917:../Main.c     **** 
 918:../Main.c     **** 	DATA_printf(TX_DATA,T_Y);//è½¬æ¢Yè½´æ•°æ®åˆ°æ•°ç»„
 1915              		.loc 1 918 0 discriminator 1
 1916 00ea 40F20003 		movw	r3, #:lower16:T_Y
 1917 00ee C0F20003 		movt	r3, #:upper16:T_Y
 1918 00f2 1B88     		ldrh	r3, [r3, #0]
 1919 00f4 1BB2     		sxth	r3, r3
 1920 00f6 40F20000 		movw	r0, #:lower16:TX_DATA
 1921 00fa C0F20000 		movt	r0, #:upper16:TX_DATA
 1922 00fe 1946     		mov	r1, r3
 1923 0100 FFF7FEFF 		bl	DATA_printf
 919:../Main.c     **** 
 920:../Main.c     **** 	Send_data('Y');			 //å‘é€Yè½´æ•°
 1924              		.loc 1 920 0 discriminator 1
 1925 0104 4FF05900 		mov	r0, #89
 1926 0108 FFF7FEFF 		bl	Send_data
 921:../Main.c     **** 
 922:../Main.c     **** 	DATA_printf(TX_DATA,T_Z);//è½¬æ¢Zè½´æ•°æ®åˆ°æ•°ç»„
 1927              		.loc 1 922 0 discriminator 1
 1928 010c 40F20003 		movw	r3, #:lower16:T_Z
 1929 0110 C0F20003 		movt	r3, #:upper16:T_Z
 1930 0114 1B88     		ldrh	r3, [r3, #0]
 1931 0116 1BB2     		sxth	r3, r3
 1932 0118 40F20000 		movw	r0, #:lower16:TX_DATA
 1933 011c C0F20000 		movt	r0, #:upper16:TX_DATA
 1934 0120 1946     		mov	r1, r3
 1935 0122 FFF7FEFF 		bl	DATA_printf
 923:../Main.c     **** 
 924:../Main.c     **** 	Send_data('Z');			 //å‘é€Zè½´æ•°
 1936              		.loc 1 924 0 discriminator 1
 1937 0126 4FF05A00 		mov	r0, #90
 1938 012a FFF7FEFF 		bl	Send_data
 925:../Main.c     **** 
 926:../Main.c     **** 	DATA_printf(TX_DATA,T_T);//è½¬æ¢æ¸©åº¦æ•°æ®åˆ°æ•°ç»„
 1939              		.loc 1 926 0 discriminator 1
 1940 012e 40F20003 		movw	r3, #:lower16:T_T
 1941 0132 C0F20003 		movt	r3, #:upper16:T_T
 1942 0136 1B88     		ldrh	r3, [r3, #0]
 1943 0138 1BB2     		sxth	r3, r3
 1944 013a 40F20000 		movw	r0, #:lower16:TX_DATA
 1945 013e C0F20000 		movt	r0, #:upper16:TX_DATA
 1946 0142 1946     		mov	r1, r3
 1947 0144 FFF7FEFF 		bl	DATA_printf
 927:../Main.c     **** 
 928:../Main.c     **** 	Send_data('T');			 //å‘é€æ¸©åº¦æ•°æ®
 1948              		.loc 1 928 0 discriminator 1
 1949 0148 4FF05400 		mov	r0, #84
 1950 014c FFF7FEFF 		bl	Send_data
 929:../Main.c     **** /*
 930:../Main.c     **** 
 931:../Main.c     **** 	USART1_SendData(0X0D);	 //æ¢è¡Œ
 932:../Main.c     **** 
 933:../Main.c     **** 	USART1_SendData(0X0A);	 //å›è½¦
 934:../Main.c     **** */
 935:../Main.c     **** 	myputchar(0X0D);
 1951              		.loc 1 935 0 discriminator 1
 1952 0150 4FF00D00 		mov	r0, #13
 1953 0154 FFF7FEFF 		bl	myputchar
 936:../Main.c     **** 	myputchar(0X0A);
 1954              		.loc 1 936 0 discriminator 1
 1955 0158 4FF00A00 		mov	r0, #10
 1956 015c FFF7FEFF 		bl	myputchar
 937:../Main.c     **** //	myputchar('\n');
 938:../Main.c     **** //	myputchar('\r');
 939:../Main.c     **** /*
 940:../Main.c     **** 	Send_data(0X0D);	 //æ¢è¡Œ
 941:../Main.c     **** 
 942:../Main.c     **** 	Send_data(0X0A);	 //å›è½¦
 943:../Main.c     **** */
 944:../Main.c     **** 	//Delayms(5);				 //å»¶æ—¶
 945:../Main.c     ****  //   delay5ms();
 946:../Main.c     **** 
 947:../Main.c     **** 	}
 1957              		.loc 1 947 0 discriminator 1
 1958 0160 B0E7     		b	.L65
 1959              		.cfi_endproc
 1960              	.LFE134:
 1962 0162 00BF     		.section	.text.my_func_a,"ax",%progbits
 1963              		.align	2
 1964              		.global	my_func_a
 1965              		.thumb
 1966              		.thumb_func
 1968              	my_func_a:
 1969              	.LFB135:
 948:../Main.c     **** 	return 0;
 949:../Main.c     **** }
 950:../Main.c     **** 
 951:../Main.c     **** void my_func_a(void* Temp)
 952:../Main.c     **** {
 1970              		.loc 1 952 0
 1971              		.cfi_startproc
 1972              		@ args = 0, pretend = 0, frame = 8
 1973              		@ frame_needed = 1, uses_anonymous_args = 0
 1974              		@ link register save eliminated.
 1975 0000 80B4     		push	{r7}
 1976              	.LCFI60:
 1977              		.cfi_def_cfa_offset 4
 1978              		.cfi_offset 7, -4
 1979 0002 83B0     		sub	sp, sp, #12
 1980              	.LCFI61:
 1981              		.cfi_def_cfa_offset 16
 1982 0004 00AF     		add	r7, sp, #0
 1983              	.LCFI62:
 1984              		.cfi_def_cfa_register 7
 1985 0006 7860     		str	r0, [r7, #4]
 953:../Main.c     **** 	soft_cnt ++;
 1986              		.loc 1 953 0
 1987 0008 40F20003 		movw	r3, #:lower16:soft_cnt
 1988 000c C0F20003 		movt	r3, #:upper16:soft_cnt
 1989 0010 1B68     		ldr	r3, [r3, #0]
 1990 0012 03F10102 		add	r2, r3, #1
 1991 0016 40F20003 		movw	r3, #:lower16:soft_cnt
 1992 001a C0F20003 		movt	r3, #:upper16:soft_cnt
 1993 001e 1A60     		str	r2, [r3, #0]
 954:../Main.c     **** 	if(soft_cnt == 1)
 1994              		.loc 1 954 0
 1995 0020 40F20003 		movw	r3, #:lower16:soft_cnt
 1996 0024 C0F20003 		movt	r3, #:upper16:soft_cnt
 1997 0028 1B68     		ldr	r3, [r3, #0]
 1998 002a 012B     		cmp	r3, #1
 1999 002c 0DD1     		bne	.L66
 955:../Main.c     **** 	{
 956:../Main.c     **** 		soft_cnt = 0;
 2000              		.loc 1 956 0
 2001 002e 40F20003 		movw	r3, #:lower16:soft_cnt
 2002 0032 C0F20003 		movt	r3, #:upper16:soft_cnt
 2003 0036 4FF00002 		mov	r2, #0
 2004 003a 1A60     		str	r2, [r3, #0]
 957:../Main.c     **** 		TimerExpired = TRUE;
 2005              		.loc 1 957 0
 2006 003c 40F20003 		movw	r3, #:lower16:TimerExpired
 2007 0040 C0F20003 		movt	r3, #:upper16:TimerExpired
 2008 0044 4FF00102 		mov	r2, #1
 2009 0048 1A70     		strb	r2, [r3, #0]
 2010              	.L66:
 958:../Main.c     **** 	}
 959:../Main.c     **** 
 960:../Main.c     **** }
 2011              		.loc 1 960 0
 2012 004a 07F10C07 		add	r7, r7, #12
 2013 004e BD46     		mov	sp, r7
 2014 0050 80BC     		pop	{r7}
 2015 0052 7047     		bx	lr
 2016              		.cfi_endproc
 2017              	.LFE135:
 2019              		.section	.text.millisecond_handler,"ax",%progbits
 2020              		.align	2
 2021              		.global	millisecond_handler
 2022              		.thumb
 2023              		.thumb_func
 2025              	millisecond_handler:
 2026              	.LFB136:
 961:../Main.c     **** void millisecond_handler(void* Temp)
 962:../Main.c     **** {
 2027              		.loc 1 962 0
 2028              		.cfi_startproc
 2029              		@ args = 0, pretend = 0, frame = 8
 2030              		@ frame_needed = 1, uses_anonymous_args = 0
 2031              		@ link register save eliminated.
 2032 0000 80B4     		push	{r7}
 2033              	.LCFI63:
 2034              		.cfi_def_cfa_offset 4
 2035              		.cfi_offset 7, -4
 2036 0002 83B0     		sub	sp, sp, #12
 2037              	.LCFI64:
 2038              		.cfi_def_cfa_offset 16
 2039 0004 00AF     		add	r7, sp, #0
 2040              	.LCFI65:
 2041              		.cfi_def_cfa_register 7
 2042 0006 7860     		str	r0, [r7, #4]
 963:../Main.c     ****     TimerId_2_cnt = TimerId_2_cnt - 1;
 2043              		.loc 1 963 0
 2044 0008 40F20003 		movw	r3, #:lower16:TimerId_2_cnt
 2045 000c C0F20003 		movt	r3, #:upper16:TimerId_2_cnt
 2046 0010 1B68     		ldr	r3, [r3, #0]
 2047 0012 03F1FF32 		add	r2, r3, #-1
 2048 0016 40F20003 		movw	r3, #:lower16:TimerId_2_cnt
 2049 001a C0F20003 		movt	r3, #:upper16:TimerId_2_cnt
 2050 001e 1A60     		str	r2, [r3, #0]
 964:../Main.c     **** }
 2051              		.loc 1 964 0
 2052 0020 07F10C07 		add	r7, r7, #12
 2053 0024 BD46     		mov	sp, r7
 2054 0026 80BC     		pop	{r7}
 2055 0028 7047     		bx	lr
 2056              		.cfi_endproc
 2057              	.LFE136:
 2059 002a 00BF     		.section	.text.delay5ms,"ax",%progbits
 2060              		.align	2
 2061              		.global	delay5ms
 2062              		.thumb
 2063              		.thumb_func
 2065              	delay5ms:
 2066              	.LFB137:
 965:../Main.c     **** void delay5ms(void)
 966:../Main.c     **** {
 2067              		.loc 1 966 0
 2068              		.cfi_startproc
 2069              		@ args = 0, pretend = 0, frame = 0
 2070              		@ frame_needed = 1, uses_anonymous_args = 0
 2071 0000 80B5     		push	{r7, lr}
 2072              	.LCFI66:
 2073              		.cfi_def_cfa_offset 8
 2074              		.cfi_offset 7, -8
 2075              		.cfi_offset 14, -4
 2076 0002 00AF     		add	r7, sp, #0
 2077              	.LCFI67:
 2078              		.cfi_def_cfa_register 7
 967:../Main.c     ****     TimerId_2_cnt  = 5;
 2079              		.loc 1 967 0
 2080 0004 40F20003 		movw	r3, #:lower16:TimerId_2_cnt
 2081 0008 C0F20003 		movt	r3, #:upper16:TimerId_2_cnt
 2082 000c 4FF00502 		mov	r2, #5
 2083 0010 1A60     		str	r2, [r3, #0]
 968:../Main.c     ****     SYSTM001_StartTimer(TimerId_1);
 2084              		.loc 1 968 0
 2085 0012 40F20003 		movw	r3, #:lower16:TimerId_1
 2086 0016 C0F20003 		movt	r3, #:upper16:TimerId_1
 2087 001a 1B68     		ldr	r3, [r3, #0]
 2088 001c 1846     		mov	r0, r3
 2089 001e FFF7FEFF 		bl	SYSTM001_StartTimer
 969:../Main.c     ****     while(TimerId_2_cnt != 0)
 2090              		.loc 1 969 0
 2091 0022 00BF     		nop
 2092              	.L70:
 2093              		.loc 1 969 0 is_stmt 0 discriminator 1
 2094 0024 40F20003 		movw	r3, #:lower16:TimerId_2_cnt
 2095 0028 C0F20003 		movt	r3, #:upper16:TimerId_2_cnt
 2096 002c 1B68     		ldr	r3, [r3, #0]
 2097 002e 002B     		cmp	r3, #0
 2098 0030 F8D1     		bne	.L70
 970:../Main.c     ****     {}
 971:../Main.c     ****     SYSTM001_StopTimer(TimerId_1);
 2099              		.loc 1 971 0 is_stmt 1
 2100 0032 40F20003 		movw	r3, #:lower16:TimerId_1
 2101 0036 C0F20003 		movt	r3, #:upper16:TimerId_1
 2102 003a 1B68     		ldr	r3, [r3, #0]
 2103 003c 1846     		mov	r0, r3
 2104 003e FFF7FEFF 		bl	SYSTM001_StopTimer
 972:../Main.c     **** 
 973:../Main.c     **** }
 2105              		.loc 1 973 0
 2106 0042 80BD     		pop	{r7, pc}
 2107              		.cfi_endproc
 2108              	.LFE137:
 2110              		.text
 2111              	.Letext0:
 2112              		.file 2 "d:\\dave-3.1.10\\arm-gcc\\bin\\../lib/gcc/arm-none-eabi/4.7.4/../../../../arm-none-eabi/i
 2113              		.file 3 "D:\\DAVE-3.1.10\\eclipse\\/../CMSIS/Infineon/XMC4500_series/Include/XMC4500.h"
 2114              		.file 4 "E:\\Project_Double_Wheel_Self_Balance_Car\\Merge\\XMC4500_IO_Test\\Dave\\Generated\\inc\\
 2115              		.file 5 "E:\\Project_Double_Wheel_Self_Balance_Car\\Merge\\XMC4500_IO_Test\\Dave\\Generated\\inc\\
 2116              		.file 6 "E:\\Project_Double_Wheel_Self_Balance_Car\\Merge\\XMC4500_IO_Test\\Dave\\Generated\\inc\\
 2117              		.file 7 "E:\\Project_Double_Wheel_Self_Balance_Car\\Merge\\XMC4500_IO_Test\\Dave\\Generated\\inc\\
 2118              		.file 8 "E:\\Project_Double_Wheel_Self_Balance_Car\\Merge\\XMC4500_IO_Test\\Dave\\Generated\\inc\\
 2119              		.file 9 "D:\\DAVE-3.1.10\\eclipse\\/../CMSIS/Include/core_cm4.h"
 2120              		.file 10 "E:\\Project_Double_Wheel_Self_Balance_Car\\Merge\\XMC4500_IO_Test\\Dave\\Generated\\inc\
 2121              		.file 11 "E:\\Project_Double_Wheel_Self_Balance_Car\\Merge\\XMC4500_IO_Test\\Dave\\Generated\\inc\